
rv32ui-p-or:     file format elf32-littleriscv


Disassembly of section .text:

00000000 <test_2>:
   0:	00200193          	li	gp,2
   4:	ff0105b7          	lui	a1,0xff010
   8:	f0058593          	addi	a1,a1,-256 # ff00ff00 <_end+0xff00eeb8>
   c:	0f0f1637          	lui	a2,0xf0f1
  10:	f0f60613          	addi	a2,a2,-241 # f0f0f0f <_end+0xf0efec7>
  14:	00c5e733          	or	a4,a1,a2
  18:	ff1003b7          	lui	t2,0xff100
  1c:	f0f38393          	addi	t2,t2,-241 # ff0fff0f <_end+0xff0feec7>
  20:	4a771263          	bne	a4,t2,4c4 <fail>

00000024 <test_3>:
  24:	00300193          	li	gp,3
  28:	0ff015b7          	lui	a1,0xff01
  2c:	ff058593          	addi	a1,a1,-16 # ff00ff0 <_end+0xfefffa8>
  30:	f0f0f637          	lui	a2,0xf0f0f
  34:	0f060613          	addi	a2,a2,240 # f0f0f0f0 <_end+0xf0f0e0a8>
  38:	00c5e733          	or	a4,a1,a2
  3c:	fff103b7          	lui	t2,0xfff10
  40:	ff038393          	addi	t2,t2,-16 # fff0fff0 <_end+0xfff0efa8>
  44:	48771063          	bne	a4,t2,4c4 <fail>

00000048 <test_4>:
  48:	00400193          	li	gp,4
  4c:	00ff05b7          	lui	a1,0xff0
  50:	0ff58593          	addi	a1,a1,255 # ff00ff <_end+0xfef0b7>
  54:	0f0f1637          	lui	a2,0xf0f1
  58:	f0f60613          	addi	a2,a2,-241 # f0f0f0f <_end+0xf0efec7>
  5c:	00c5e733          	or	a4,a1,a2
  60:	0fff13b7          	lui	t2,0xfff1
  64:	fff38393          	addi	t2,t2,-1 # fff0fff <_end+0xffeffb7>
  68:	44771e63          	bne	a4,t2,4c4 <fail>

0000006c <test_5>:
  6c:	00500193          	li	gp,5
  70:	f00ff5b7          	lui	a1,0xf00ff
  74:	00f58593          	addi	a1,a1,15 # f00ff00f <_end+0xf00fdfc7>
  78:	f0f0f637          	lui	a2,0xf0f0f
  7c:	0f060613          	addi	a2,a2,240 # f0f0f0f0 <_end+0xf0f0e0a8>
  80:	00c5e733          	or	a4,a1,a2
  84:	f0fff3b7          	lui	t2,0xf0fff
  88:	0ff38393          	addi	t2,t2,255 # f0fff0ff <_end+0xf0ffe0b7>
  8c:	42771c63          	bne	a4,t2,4c4 <fail>

00000090 <test_6>:
  90:	00600193          	li	gp,6
  94:	ff0105b7          	lui	a1,0xff010
  98:	f0058593          	addi	a1,a1,-256 # ff00ff00 <_end+0xff00eeb8>
  9c:	0f0f1637          	lui	a2,0xf0f1
  a0:	f0f60613          	addi	a2,a2,-241 # f0f0f0f <_end+0xf0efec7>
  a4:	00c5e5b3          	or	a1,a1,a2
  a8:	ff1003b7          	lui	t2,0xff100
  ac:	f0f38393          	addi	t2,t2,-241 # ff0fff0f <_end+0xff0feec7>
  b0:	40759a63          	bne	a1,t2,4c4 <fail>

000000b4 <test_7>:
  b4:	00700193          	li	gp,7
  b8:	ff0105b7          	lui	a1,0xff010
  bc:	f0058593          	addi	a1,a1,-256 # ff00ff00 <_end+0xff00eeb8>
  c0:	0f0f1637          	lui	a2,0xf0f1
  c4:	f0f60613          	addi	a2,a2,-241 # f0f0f0f <_end+0xf0efec7>
  c8:	00c5e633          	or	a2,a1,a2
  cc:	ff1003b7          	lui	t2,0xff100
  d0:	f0f38393          	addi	t2,t2,-241 # ff0fff0f <_end+0xff0feec7>
  d4:	3e761863          	bne	a2,t2,4c4 <fail>

000000d8 <test_8>:
  d8:	00800193          	li	gp,8
  dc:	ff0105b7          	lui	a1,0xff010
  e0:	f0058593          	addi	a1,a1,-256 # ff00ff00 <_end+0xff00eeb8>
  e4:	00b5e5b3          	or	a1,a1,a1
  e8:	ff0103b7          	lui	t2,0xff010
  ec:	f0038393          	addi	t2,t2,-256 # ff00ff00 <_end+0xff00eeb8>
  f0:	3c759a63          	bne	a1,t2,4c4 <fail>

000000f4 <test_9>:
  f4:	00900193          	li	gp,9
  f8:	00000213          	li	tp,0
  fc:	ff0100b7          	lui	ra,0xff010
 100:	f0008093          	addi	ra,ra,-256 # ff00ff00 <_end+0xff00eeb8>
 104:	0f0f1137          	lui	sp,0xf0f1
 108:	f0f10113          	addi	sp,sp,-241 # f0f0f0f <_end+0xf0efec7>
 10c:	0020e733          	or	a4,ra,sp
 110:	00070313          	mv	t1,a4
 114:	00120213          	addi	tp,tp,1 # 1 <test_2+0x1>
 118:	00200293          	li	t0,2
 11c:	fe5210e3          	bne	tp,t0,fc <test_9+0x8>
 120:	ff1003b7          	lui	t2,0xff100
 124:	f0f38393          	addi	t2,t2,-241 # ff0fff0f <_end+0xff0feec7>
 128:	38731e63          	bne	t1,t2,4c4 <fail>

0000012c <test_10>:
 12c:	00a00193          	li	gp,10
 130:	00000213          	li	tp,0
 134:	0ff010b7          	lui	ra,0xff01
 138:	ff008093          	addi	ra,ra,-16 # ff00ff0 <_end+0xfefffa8>
 13c:	f0f0f137          	lui	sp,0xf0f0f
 140:	0f010113          	addi	sp,sp,240 # f0f0f0f0 <_end+0xf0f0e0a8>
 144:	0020e733          	or	a4,ra,sp
 148:	00000013          	nop
 14c:	00070313          	mv	t1,a4
 150:	00120213          	addi	tp,tp,1 # 1 <test_2+0x1>
 154:	00200293          	li	t0,2
 158:	fc521ee3          	bne	tp,t0,134 <test_10+0x8>
 15c:	fff103b7          	lui	t2,0xfff10
 160:	ff038393          	addi	t2,t2,-16 # fff0fff0 <_end+0xfff0efa8>
 164:	36731063          	bne	t1,t2,4c4 <fail>

00000168 <test_11>:
 168:	00b00193          	li	gp,11
 16c:	00000213          	li	tp,0
 170:	00ff00b7          	lui	ra,0xff0
 174:	0ff08093          	addi	ra,ra,255 # ff00ff <_end+0xfef0b7>
 178:	0f0f1137          	lui	sp,0xf0f1
 17c:	f0f10113          	addi	sp,sp,-241 # f0f0f0f <_end+0xf0efec7>
 180:	0020e733          	or	a4,ra,sp
 184:	00000013          	nop
 188:	00000013          	nop
 18c:	00070313          	mv	t1,a4
 190:	00120213          	addi	tp,tp,1 # 1 <test_2+0x1>
 194:	00200293          	li	t0,2
 198:	fc521ce3          	bne	tp,t0,170 <test_11+0x8>
 19c:	0fff13b7          	lui	t2,0xfff1
 1a0:	fff38393          	addi	t2,t2,-1 # fff0fff <_end+0xffeffb7>
 1a4:	32731063          	bne	t1,t2,4c4 <fail>

000001a8 <test_12>:
 1a8:	00c00193          	li	gp,12
 1ac:	00000213          	li	tp,0
 1b0:	ff0100b7          	lui	ra,0xff010
 1b4:	f0008093          	addi	ra,ra,-256 # ff00ff00 <_end+0xff00eeb8>
 1b8:	0f0f1137          	lui	sp,0xf0f1
 1bc:	f0f10113          	addi	sp,sp,-241 # f0f0f0f <_end+0xf0efec7>
 1c0:	0020e733          	or	a4,ra,sp
 1c4:	00120213          	addi	tp,tp,1 # 1 <test_2+0x1>
 1c8:	00200293          	li	t0,2
 1cc:	fe5212e3          	bne	tp,t0,1b0 <test_12+0x8>
 1d0:	ff1003b7          	lui	t2,0xff100
 1d4:	f0f38393          	addi	t2,t2,-241 # ff0fff0f <_end+0xff0feec7>
 1d8:	2e771663          	bne	a4,t2,4c4 <fail>

000001dc <test_13>:
 1dc:	00d00193          	li	gp,13
 1e0:	00000213          	li	tp,0
 1e4:	0ff010b7          	lui	ra,0xff01
 1e8:	ff008093          	addi	ra,ra,-16 # ff00ff0 <_end+0xfefffa8>
 1ec:	f0f0f137          	lui	sp,0xf0f0f
 1f0:	0f010113          	addi	sp,sp,240 # f0f0f0f0 <_end+0xf0f0e0a8>
 1f4:	00000013          	nop
 1f8:	0020e733          	or	a4,ra,sp
 1fc:	00120213          	addi	tp,tp,1 # 1 <test_2+0x1>
 200:	00200293          	li	t0,2
 204:	fe5210e3          	bne	tp,t0,1e4 <test_13+0x8>
 208:	fff103b7          	lui	t2,0xfff10
 20c:	ff038393          	addi	t2,t2,-16 # fff0fff0 <_end+0xfff0efa8>
 210:	2a771a63          	bne	a4,t2,4c4 <fail>

00000214 <test_14>:
 214:	00e00193          	li	gp,14
 218:	00000213          	li	tp,0
 21c:	00ff00b7          	lui	ra,0xff0
 220:	0ff08093          	addi	ra,ra,255 # ff00ff <_end+0xfef0b7>
 224:	0f0f1137          	lui	sp,0xf0f1
 228:	f0f10113          	addi	sp,sp,-241 # f0f0f0f <_end+0xf0efec7>
 22c:	00000013          	nop
 230:	00000013          	nop
 234:	0020e733          	or	a4,ra,sp
 238:	00120213          	addi	tp,tp,1 # 1 <test_2+0x1>
 23c:	00200293          	li	t0,2
 240:	fc521ee3          	bne	tp,t0,21c <test_14+0x8>
 244:	0fff13b7          	lui	t2,0xfff1
 248:	fff38393          	addi	t2,t2,-1 # fff0fff <_end+0xffeffb7>
 24c:	26771c63          	bne	a4,t2,4c4 <fail>

00000250 <test_15>:
 250:	00f00193          	li	gp,15
 254:	00000213          	li	tp,0
 258:	ff0100b7          	lui	ra,0xff010
 25c:	f0008093          	addi	ra,ra,-256 # ff00ff00 <_end+0xff00eeb8>
 260:	00000013          	nop
 264:	0f0f1137          	lui	sp,0xf0f1
 268:	f0f10113          	addi	sp,sp,-241 # f0f0f0f <_end+0xf0efec7>
 26c:	0020e733          	or	a4,ra,sp
 270:	00120213          	addi	tp,tp,1 # 1 <test_2+0x1>
 274:	00200293          	li	t0,2
 278:	fe5210e3          	bne	tp,t0,258 <test_15+0x8>
 27c:	ff1003b7          	lui	t2,0xff100
 280:	f0f38393          	addi	t2,t2,-241 # ff0fff0f <_end+0xff0feec7>
 284:	24771063          	bne	a4,t2,4c4 <fail>

00000288 <test_16>:
 288:	01000193          	li	gp,16
 28c:	00000213          	li	tp,0
 290:	0ff010b7          	lui	ra,0xff01
 294:	ff008093          	addi	ra,ra,-16 # ff00ff0 <_end+0xfefffa8>
 298:	00000013          	nop
 29c:	f0f0f137          	lui	sp,0xf0f0f
 2a0:	0f010113          	addi	sp,sp,240 # f0f0f0f0 <_end+0xf0f0e0a8>
 2a4:	00000013          	nop
 2a8:	0020e733          	or	a4,ra,sp
 2ac:	00120213          	addi	tp,tp,1 # 1 <test_2+0x1>
 2b0:	00200293          	li	t0,2
 2b4:	fc521ee3          	bne	tp,t0,290 <test_16+0x8>
 2b8:	fff103b7          	lui	t2,0xfff10
 2bc:	ff038393          	addi	t2,t2,-16 # fff0fff0 <_end+0xfff0efa8>
 2c0:	20771263          	bne	a4,t2,4c4 <fail>

000002c4 <test_17>:
 2c4:	01100193          	li	gp,17
 2c8:	00000213          	li	tp,0
 2cc:	00ff00b7          	lui	ra,0xff0
 2d0:	0ff08093          	addi	ra,ra,255 # ff00ff <_end+0xfef0b7>
 2d4:	00000013          	nop
 2d8:	00000013          	nop
 2dc:	0f0f1137          	lui	sp,0xf0f1
 2e0:	f0f10113          	addi	sp,sp,-241 # f0f0f0f <_end+0xf0efec7>
 2e4:	0020e733          	or	a4,ra,sp
 2e8:	00120213          	addi	tp,tp,1 # 1 <test_2+0x1>
 2ec:	00200293          	li	t0,2
 2f0:	fc521ee3          	bne	tp,t0,2cc <test_17+0x8>
 2f4:	0fff13b7          	lui	t2,0xfff1
 2f8:	fff38393          	addi	t2,t2,-1 # fff0fff <_end+0xffeffb7>
 2fc:	1c771463          	bne	a4,t2,4c4 <fail>

00000300 <test_18>:
 300:	01200193          	li	gp,18
 304:	00000213          	li	tp,0
 308:	0f0f1137          	lui	sp,0xf0f1
 30c:	f0f10113          	addi	sp,sp,-241 # f0f0f0f <_end+0xf0efec7>
 310:	ff0100b7          	lui	ra,0xff010
 314:	f0008093          	addi	ra,ra,-256 # ff00ff00 <_end+0xff00eeb8>
 318:	0020e733          	or	a4,ra,sp
 31c:	00120213          	addi	tp,tp,1 # 1 <test_2+0x1>
 320:	00200293          	li	t0,2
 324:	fe5212e3          	bne	tp,t0,308 <test_18+0x8>
 328:	ff1003b7          	lui	t2,0xff100
 32c:	f0f38393          	addi	t2,t2,-241 # ff0fff0f <_end+0xff0feec7>
 330:	18771a63          	bne	a4,t2,4c4 <fail>

00000334 <test_19>:
 334:	01300193          	li	gp,19
 338:	00000213          	li	tp,0
 33c:	f0f0f137          	lui	sp,0xf0f0f
 340:	0f010113          	addi	sp,sp,240 # f0f0f0f0 <_end+0xf0f0e0a8>
 344:	0ff010b7          	lui	ra,0xff01
 348:	ff008093          	addi	ra,ra,-16 # ff00ff0 <_end+0xfefffa8>
 34c:	00000013          	nop
 350:	0020e733          	or	a4,ra,sp
 354:	00120213          	addi	tp,tp,1 # 1 <test_2+0x1>
 358:	00200293          	li	t0,2
 35c:	fe5210e3          	bne	tp,t0,33c <test_19+0x8>
 360:	fff103b7          	lui	t2,0xfff10
 364:	ff038393          	addi	t2,t2,-16 # fff0fff0 <_end+0xfff0efa8>
 368:	14771e63          	bne	a4,t2,4c4 <fail>

0000036c <test_20>:
 36c:	01400193          	li	gp,20
 370:	00000213          	li	tp,0
 374:	0f0f1137          	lui	sp,0xf0f1
 378:	f0f10113          	addi	sp,sp,-241 # f0f0f0f <_end+0xf0efec7>
 37c:	00ff00b7          	lui	ra,0xff0
 380:	0ff08093          	addi	ra,ra,255 # ff00ff <_end+0xfef0b7>
 384:	00000013          	nop
 388:	00000013          	nop
 38c:	0020e733          	or	a4,ra,sp
 390:	00120213          	addi	tp,tp,1 # 1 <test_2+0x1>
 394:	00200293          	li	t0,2
 398:	fc521ee3          	bne	tp,t0,374 <test_20+0x8>
 39c:	0fff13b7          	lui	t2,0xfff1
 3a0:	fff38393          	addi	t2,t2,-1 # fff0fff <_end+0xffeffb7>
 3a4:	12771063          	bne	a4,t2,4c4 <fail>

000003a8 <test_21>:
 3a8:	01500193          	li	gp,21
 3ac:	00000213          	li	tp,0
 3b0:	0f0f1137          	lui	sp,0xf0f1
 3b4:	f0f10113          	addi	sp,sp,-241 # f0f0f0f <_end+0xf0efec7>
 3b8:	00000013          	nop
 3bc:	ff0100b7          	lui	ra,0xff010
 3c0:	f0008093          	addi	ra,ra,-256 # ff00ff00 <_end+0xff00eeb8>
 3c4:	0020e733          	or	a4,ra,sp
 3c8:	00120213          	addi	tp,tp,1 # 1 <test_2+0x1>
 3cc:	00200293          	li	t0,2
 3d0:	fe5210e3          	bne	tp,t0,3b0 <test_21+0x8>
 3d4:	ff1003b7          	lui	t2,0xff100
 3d8:	f0f38393          	addi	t2,t2,-241 # ff0fff0f <_end+0xff0feec7>
 3dc:	0e771463          	bne	a4,t2,4c4 <fail>

000003e0 <test_22>:
 3e0:	01600193          	li	gp,22
 3e4:	00000213          	li	tp,0
 3e8:	f0f0f137          	lui	sp,0xf0f0f
 3ec:	0f010113          	addi	sp,sp,240 # f0f0f0f0 <_end+0xf0f0e0a8>
 3f0:	00000013          	nop
 3f4:	0ff010b7          	lui	ra,0xff01
 3f8:	ff008093          	addi	ra,ra,-16 # ff00ff0 <_end+0xfefffa8>
 3fc:	00000013          	nop
 400:	0020e733          	or	a4,ra,sp
 404:	00120213          	addi	tp,tp,1 # 1 <test_2+0x1>
 408:	00200293          	li	t0,2
 40c:	fc521ee3          	bne	tp,t0,3e8 <test_22+0x8>
 410:	fff103b7          	lui	t2,0xfff10
 414:	ff038393          	addi	t2,t2,-16 # fff0fff0 <_end+0xfff0efa8>
 418:	0a771663          	bne	a4,t2,4c4 <fail>

0000041c <test_23>:
 41c:	01700193          	li	gp,23
 420:	00000213          	li	tp,0
 424:	0f0f1137          	lui	sp,0xf0f1
 428:	f0f10113          	addi	sp,sp,-241 # f0f0f0f <_end+0xf0efec7>
 42c:	00000013          	nop
 430:	00000013          	nop
 434:	00ff00b7          	lui	ra,0xff0
 438:	0ff08093          	addi	ra,ra,255 # ff00ff <_end+0xfef0b7>
 43c:	0020e733          	or	a4,ra,sp
 440:	00120213          	addi	tp,tp,1 # 1 <test_2+0x1>
 444:	00200293          	li	t0,2
 448:	fc521ee3          	bne	tp,t0,424 <test_23+0x8>
 44c:	0fff13b7          	lui	t2,0xfff1
 450:	fff38393          	addi	t2,t2,-1 # fff0fff <_end+0xffeffb7>
 454:	06771863          	bne	a4,t2,4c4 <fail>

00000458 <test_24>:
 458:	01800193          	li	gp,24
 45c:	ff0100b7          	lui	ra,0xff010
 460:	f0008093          	addi	ra,ra,-256 # ff00ff00 <_end+0xff00eeb8>
 464:	00106133          	or	sp,zero,ra
 468:	ff0103b7          	lui	t2,0xff010
 46c:	f0038393          	addi	t2,t2,-256 # ff00ff00 <_end+0xff00eeb8>
 470:	04711a63          	bne	sp,t2,4c4 <fail>

00000474 <test_25>:
 474:	01900193          	li	gp,25
 478:	00ff00b7          	lui	ra,0xff0
 47c:	0ff08093          	addi	ra,ra,255 # ff00ff <_end+0xfef0b7>
 480:	0000e133          	or	sp,ra,zero
 484:	00ff03b7          	lui	t2,0xff0
 488:	0ff38393          	addi	t2,t2,255 # ff00ff <_end+0xfef0b7>
 48c:	02711c63          	bne	sp,t2,4c4 <fail>

00000490 <test_26>:
 490:	01a00193          	li	gp,26
 494:	000060b3          	or	ra,zero,zero
 498:	00000393          	li	t2,0
 49c:	02709463          	bne	ra,t2,4c4 <fail>

000004a0 <test_27>:
 4a0:	01b00193          	li	gp,27
 4a4:	111110b7          	lui	ra,0x11111
 4a8:	11108093          	addi	ra,ra,273 # 11111111 <_end+0x111100c9>
 4ac:	22222137          	lui	sp,0x22222
 4b0:	22210113          	addi	sp,sp,546 # 22222222 <_end+0x222211da>
 4b4:	0020e033          	or	zero,ra,sp
 4b8:	00000393          	li	t2,0
 4bc:	00701463          	bne	zero,t2,4c4 <fail>
 4c0:	02301063          	bne	zero,gp,4e0 <pass>

000004c4 <fail>:
 4c4:	0ff0000f          	fence
 4c8:	00018063          	beqz	gp,4c8 <fail+0x4>
 4cc:	00119193          	slli	gp,gp,0x1
 4d0:	0011e193          	ori	gp,gp,1
 4d4:	05d00893          	li	a7,93
 4d8:	00018513          	mv	a0,gp
 4dc:	00000073          	ecall

000004e0 <pass>:
 4e0:	0ff0000f          	fence
 4e4:	00100193          	li	gp,1
 4e8:	05d00893          	li	a7,93
 4ec:	00000513          	li	a0,0
 4f0:	00000073          	ecall
