
rv32ui-p-srl:     file format elf32-littleriscv


Disassembly of section .text:

00000000 <test_2>:
   0:	00200193          	li	gp,2
   4:	800005b7          	lui	a1,0x80000
   8:	00000613          	li	a2,0
   c:	00c5d733          	srl	a4,a1,a2
  10:	800003b7          	lui	t2,0x80000
  14:	56771863          	bne	a4,t2,584 <fail>

00000018 <test_3>:
  18:	00300193          	li	gp,3
  1c:	800005b7          	lui	a1,0x80000
  20:	00100613          	li	a2,1
  24:	00c5d733          	srl	a4,a1,a2
  28:	400003b7          	lui	t2,0x40000
  2c:	54771c63          	bne	a4,t2,584 <fail>

00000030 <test_4>:
  30:	00400193          	li	gp,4
  34:	800005b7          	lui	a1,0x80000
  38:	00700613          	li	a2,7
  3c:	00c5d733          	srl	a4,a1,a2
  40:	010003b7          	lui	t2,0x1000
  44:	54771063          	bne	a4,t2,584 <fail>

00000048 <test_5>:
  48:	00500193          	li	gp,5
  4c:	800005b7          	lui	a1,0x80000
  50:	00e00613          	li	a2,14
  54:	00c5d733          	srl	a4,a1,a2
  58:	000203b7          	lui	t2,0x20
  5c:	52771463          	bne	a4,t2,584 <fail>

00000060 <test_6>:
  60:	00600193          	li	gp,6
  64:	800005b7          	lui	a1,0x80000
  68:	00158593          	addi	a1,a1,1 # 80000001 <_end+0x7fffefb9>
  6c:	01f00613          	li	a2,31
  70:	00c5d733          	srl	a4,a1,a2
  74:	00100393          	li	t2,1
  78:	50771663          	bne	a4,t2,584 <fail>

0000007c <test_7>:
  7c:	00700193          	li	gp,7
  80:	fff00593          	li	a1,-1
  84:	00000613          	li	a2,0
  88:	00c5d733          	srl	a4,a1,a2
  8c:	fff00393          	li	t2,-1
  90:	4e771a63          	bne	a4,t2,584 <fail>

00000094 <test_8>:
  94:	00800193          	li	gp,8
  98:	fff00593          	li	a1,-1
  9c:	00100613          	li	a2,1
  a0:	00c5d733          	srl	a4,a1,a2
  a4:	800003b7          	lui	t2,0x80000
  a8:	fff38393          	addi	t2,t2,-1 # 7fffffff <_end+0x7fffefb7>
  ac:	4c771c63          	bne	a4,t2,584 <fail>

000000b0 <test_9>:
  b0:	00900193          	li	gp,9
  b4:	fff00593          	li	a1,-1
  b8:	00700613          	li	a2,7
  bc:	00c5d733          	srl	a4,a1,a2
  c0:	020003b7          	lui	t2,0x2000
  c4:	fff38393          	addi	t2,t2,-1 # 1ffffff <_end+0x1ffefb7>
  c8:	4a771e63          	bne	a4,t2,584 <fail>

000000cc <test_10>:
  cc:	00a00193          	li	gp,10
  d0:	fff00593          	li	a1,-1
  d4:	00e00613          	li	a2,14
  d8:	00c5d733          	srl	a4,a1,a2
  dc:	000403b7          	lui	t2,0x40
  e0:	fff38393          	addi	t2,t2,-1 # 3ffff <_end+0x3efb7>
  e4:	4a771063          	bne	a4,t2,584 <fail>

000000e8 <test_11>:
  e8:	00b00193          	li	gp,11
  ec:	fff00593          	li	a1,-1
  f0:	01f00613          	li	a2,31
  f4:	00c5d733          	srl	a4,a1,a2
  f8:	00100393          	li	t2,1
  fc:	48771463          	bne	a4,t2,584 <fail>

00000100 <test_12>:
 100:	00c00193          	li	gp,12
 104:	212125b7          	lui	a1,0x21212
 108:	12158593          	addi	a1,a1,289 # 21212121 <_end+0x212110d9>
 10c:	00000613          	li	a2,0
 110:	00c5d733          	srl	a4,a1,a2
 114:	212123b7          	lui	t2,0x21212
 118:	12138393          	addi	t2,t2,289 # 21212121 <_end+0x212110d9>
 11c:	46771463          	bne	a4,t2,584 <fail>

00000120 <test_13>:
 120:	00d00193          	li	gp,13
 124:	212125b7          	lui	a1,0x21212
 128:	12158593          	addi	a1,a1,289 # 21212121 <_end+0x212110d9>
 12c:	00100613          	li	a2,1
 130:	00c5d733          	srl	a4,a1,a2
 134:	109093b7          	lui	t2,0x10909
 138:	09038393          	addi	t2,t2,144 # 10909090 <_end+0x10908048>
 13c:	44771463          	bne	a4,t2,584 <fail>

00000140 <test_14>:
 140:	00e00193          	li	gp,14
 144:	212125b7          	lui	a1,0x21212
 148:	12158593          	addi	a1,a1,289 # 21212121 <_end+0x212110d9>
 14c:	00700613          	li	a2,7
 150:	00c5d733          	srl	a4,a1,a2
 154:	004243b7          	lui	t2,0x424
 158:	24238393          	addi	t2,t2,578 # 424242 <_end+0x4231fa>
 15c:	42771463          	bne	a4,t2,584 <fail>

00000160 <test_15>:
 160:	00f00193          	li	gp,15
 164:	212125b7          	lui	a1,0x21212
 168:	12158593          	addi	a1,a1,289 # 21212121 <_end+0x212110d9>
 16c:	00e00613          	li	a2,14
 170:	00c5d733          	srl	a4,a1,a2
 174:	000083b7          	lui	t2,0x8
 178:	48438393          	addi	t2,t2,1156 # 8484 <_end+0x743c>
 17c:	40771463          	bne	a4,t2,584 <fail>

00000180 <test_16>:
 180:	01000193          	li	gp,16
 184:	212125b7          	lui	a1,0x21212
 188:	12158593          	addi	a1,a1,289 # 21212121 <_end+0x212110d9>
 18c:	01f00613          	li	a2,31
 190:	00c5d733          	srl	a4,a1,a2
 194:	00000393          	li	t2,0
 198:	3e771663          	bne	a4,t2,584 <fail>

0000019c <test_17>:
 19c:	01100193          	li	gp,17
 1a0:	212125b7          	lui	a1,0x21212
 1a4:	12158593          	addi	a1,a1,289 # 21212121 <_end+0x212110d9>
 1a8:	fc000613          	li	a2,-64
 1ac:	00c5d733          	srl	a4,a1,a2
 1b0:	212123b7          	lui	t2,0x21212
 1b4:	12138393          	addi	t2,t2,289 # 21212121 <_end+0x212110d9>
 1b8:	3c771663          	bne	a4,t2,584 <fail>

000001bc <test_18>:
 1bc:	01200193          	li	gp,18
 1c0:	212125b7          	lui	a1,0x21212
 1c4:	12158593          	addi	a1,a1,289 # 21212121 <_end+0x212110d9>
 1c8:	fc100613          	li	a2,-63
 1cc:	00c5d733          	srl	a4,a1,a2
 1d0:	109093b7          	lui	t2,0x10909
 1d4:	09038393          	addi	t2,t2,144 # 10909090 <_end+0x10908048>
 1d8:	3a771663          	bne	a4,t2,584 <fail>

000001dc <test_19>:
 1dc:	01300193          	li	gp,19
 1e0:	212125b7          	lui	a1,0x21212
 1e4:	12158593          	addi	a1,a1,289 # 21212121 <_end+0x212110d9>
 1e8:	fc700613          	li	a2,-57
 1ec:	00c5d733          	srl	a4,a1,a2
 1f0:	004243b7          	lui	t2,0x424
 1f4:	24238393          	addi	t2,t2,578 # 424242 <_end+0x4231fa>
 1f8:	38771663          	bne	a4,t2,584 <fail>

000001fc <test_20>:
 1fc:	01400193          	li	gp,20
 200:	212125b7          	lui	a1,0x21212
 204:	12158593          	addi	a1,a1,289 # 21212121 <_end+0x212110d9>
 208:	fce00613          	li	a2,-50
 20c:	00c5d733          	srl	a4,a1,a2
 210:	000083b7          	lui	t2,0x8
 214:	48438393          	addi	t2,t2,1156 # 8484 <_end+0x743c>
 218:	36771663          	bne	a4,t2,584 <fail>

0000021c <test_21>:
 21c:	01500193          	li	gp,21
 220:	212125b7          	lui	a1,0x21212
 224:	12158593          	addi	a1,a1,289 # 21212121 <_end+0x212110d9>
 228:	fff00613          	li	a2,-1
 22c:	00c5d733          	srl	a4,a1,a2
 230:	00000393          	li	t2,0
 234:	34771863          	bne	a4,t2,584 <fail>

00000238 <test_22>:
 238:	01600193          	li	gp,22
 23c:	800005b7          	lui	a1,0x80000
 240:	00700613          	li	a2,7
 244:	00c5d5b3          	srl	a1,a1,a2
 248:	010003b7          	lui	t2,0x1000
 24c:	32759c63          	bne	a1,t2,584 <fail>

00000250 <test_23>:
 250:	01700193          	li	gp,23
 254:	800005b7          	lui	a1,0x80000
 258:	00e00613          	li	a2,14
 25c:	00c5d633          	srl	a2,a1,a2
 260:	000203b7          	lui	t2,0x20
 264:	32761063          	bne	a2,t2,584 <fail>

00000268 <test_24>:
 268:	01800193          	li	gp,24
 26c:	00700593          	li	a1,7
 270:	00b5d5b3          	srl	a1,a1,a1
 274:	00000393          	li	t2,0
 278:	30759663          	bne	a1,t2,584 <fail>

0000027c <test_25>:
 27c:	01900193          	li	gp,25
 280:	00000213          	li	tp,0
 284:	800000b7          	lui	ra,0x80000
 288:	00700113          	li	sp,7
 28c:	0020d733          	srl	a4,ra,sp
 290:	00070313          	mv	t1,a4
 294:	00120213          	addi	tp,tp,1 # 1 <test_2+0x1>
 298:	00200293          	li	t0,2
 29c:	fe5214e3          	bne	tp,t0,284 <test_25+0x8>
 2a0:	010003b7          	lui	t2,0x1000
 2a4:	2e731063          	bne	t1,t2,584 <fail>

000002a8 <test_26>:
 2a8:	01a00193          	li	gp,26
 2ac:	00000213          	li	tp,0
 2b0:	800000b7          	lui	ra,0x80000
 2b4:	00e00113          	li	sp,14
 2b8:	0020d733          	srl	a4,ra,sp
 2bc:	00000013          	nop
 2c0:	00070313          	mv	t1,a4
 2c4:	00120213          	addi	tp,tp,1 # 1 <test_2+0x1>
 2c8:	00200293          	li	t0,2
 2cc:	fe5212e3          	bne	tp,t0,2b0 <test_26+0x8>
 2d0:	000203b7          	lui	t2,0x20
 2d4:	2a731863          	bne	t1,t2,584 <fail>

000002d8 <test_27>:
 2d8:	01b00193          	li	gp,27
 2dc:	00000213          	li	tp,0
 2e0:	800000b7          	lui	ra,0x80000
 2e4:	01f00113          	li	sp,31
 2e8:	0020d733          	srl	a4,ra,sp
 2ec:	00000013          	nop
 2f0:	00000013          	nop
 2f4:	00070313          	mv	t1,a4
 2f8:	00120213          	addi	tp,tp,1 # 1 <test_2+0x1>
 2fc:	00200293          	li	t0,2
 300:	fe5210e3          	bne	tp,t0,2e0 <test_27+0x8>
 304:	00100393          	li	t2,1
 308:	26731e63          	bne	t1,t2,584 <fail>

0000030c <test_28>:
 30c:	01c00193          	li	gp,28
 310:	00000213          	li	tp,0
 314:	800000b7          	lui	ra,0x80000
 318:	00700113          	li	sp,7
 31c:	0020d733          	srl	a4,ra,sp
 320:	00120213          	addi	tp,tp,1 # 1 <test_2+0x1>
 324:	00200293          	li	t0,2
 328:	fe5216e3          	bne	tp,t0,314 <test_28+0x8>
 32c:	010003b7          	lui	t2,0x1000
 330:	24771a63          	bne	a4,t2,584 <fail>

00000334 <test_29>:
 334:	01d00193          	li	gp,29
 338:	00000213          	li	tp,0
 33c:	800000b7          	lui	ra,0x80000
 340:	00e00113          	li	sp,14
 344:	00000013          	nop
 348:	0020d733          	srl	a4,ra,sp
 34c:	00120213          	addi	tp,tp,1 # 1 <test_2+0x1>
 350:	00200293          	li	t0,2
 354:	fe5214e3          	bne	tp,t0,33c <test_29+0x8>
 358:	000203b7          	lui	t2,0x20
 35c:	22771463          	bne	a4,t2,584 <fail>

00000360 <test_30>:
 360:	01e00193          	li	gp,30
 364:	00000213          	li	tp,0
 368:	800000b7          	lui	ra,0x80000
 36c:	01f00113          	li	sp,31
 370:	00000013          	nop
 374:	00000013          	nop
 378:	0020d733          	srl	a4,ra,sp
 37c:	00120213          	addi	tp,tp,1 # 1 <test_2+0x1>
 380:	00200293          	li	t0,2
 384:	fe5212e3          	bne	tp,t0,368 <test_30+0x8>
 388:	00100393          	li	t2,1
 38c:	1e771c63          	bne	a4,t2,584 <fail>

00000390 <test_31>:
 390:	01f00193          	li	gp,31
 394:	00000213          	li	tp,0
 398:	800000b7          	lui	ra,0x80000
 39c:	00000013          	nop
 3a0:	00700113          	li	sp,7
 3a4:	0020d733          	srl	a4,ra,sp
 3a8:	00120213          	addi	tp,tp,1 # 1 <test_2+0x1>
 3ac:	00200293          	li	t0,2
 3b0:	fe5214e3          	bne	tp,t0,398 <test_31+0x8>
 3b4:	010003b7          	lui	t2,0x1000
 3b8:	1c771663          	bne	a4,t2,584 <fail>

000003bc <test_32>:
 3bc:	02000193          	li	gp,32
 3c0:	00000213          	li	tp,0
 3c4:	800000b7          	lui	ra,0x80000
 3c8:	00000013          	nop
 3cc:	00e00113          	li	sp,14
 3d0:	00000013          	nop
 3d4:	0020d733          	srl	a4,ra,sp
 3d8:	00120213          	addi	tp,tp,1 # 1 <test_2+0x1>
 3dc:	00200293          	li	t0,2
 3e0:	fe5212e3          	bne	tp,t0,3c4 <test_32+0x8>
 3e4:	000203b7          	lui	t2,0x20
 3e8:	18771e63          	bne	a4,t2,584 <fail>

000003ec <test_33>:
 3ec:	02100193          	li	gp,33
 3f0:	00000213          	li	tp,0
 3f4:	800000b7          	lui	ra,0x80000
 3f8:	00000013          	nop
 3fc:	00000013          	nop
 400:	01f00113          	li	sp,31
 404:	0020d733          	srl	a4,ra,sp
 408:	00120213          	addi	tp,tp,1 # 1 <test_2+0x1>
 40c:	00200293          	li	t0,2
 410:	fe5212e3          	bne	tp,t0,3f4 <test_33+0x8>
 414:	00100393          	li	t2,1
 418:	16771663          	bne	a4,t2,584 <fail>

0000041c <test_34>:
 41c:	02200193          	li	gp,34
 420:	00000213          	li	tp,0
 424:	00700113          	li	sp,7
 428:	800000b7          	lui	ra,0x80000
 42c:	0020d733          	srl	a4,ra,sp
 430:	00120213          	addi	tp,tp,1 # 1 <test_2+0x1>
 434:	00200293          	li	t0,2
 438:	fe5216e3          	bne	tp,t0,424 <test_34+0x8>
 43c:	010003b7          	lui	t2,0x1000
 440:	14771263          	bne	a4,t2,584 <fail>

00000444 <test_35>:
 444:	02300193          	li	gp,35
 448:	00000213          	li	tp,0
 44c:	00e00113          	li	sp,14
 450:	800000b7          	lui	ra,0x80000
 454:	00000013          	nop
 458:	0020d733          	srl	a4,ra,sp
 45c:	00120213          	addi	tp,tp,1 # 1 <test_2+0x1>
 460:	00200293          	li	t0,2
 464:	fe5214e3          	bne	tp,t0,44c <test_35+0x8>
 468:	000203b7          	lui	t2,0x20
 46c:	10771c63          	bne	a4,t2,584 <fail>

00000470 <test_36>:
 470:	02400193          	li	gp,36
 474:	00000213          	li	tp,0
 478:	01f00113          	li	sp,31
 47c:	800000b7          	lui	ra,0x80000
 480:	00000013          	nop
 484:	00000013          	nop
 488:	0020d733          	srl	a4,ra,sp
 48c:	00120213          	addi	tp,tp,1 # 1 <test_2+0x1>
 490:	00200293          	li	t0,2
 494:	fe5212e3          	bne	tp,t0,478 <test_36+0x8>
 498:	00100393          	li	t2,1
 49c:	0e771463          	bne	a4,t2,584 <fail>

000004a0 <test_37>:
 4a0:	02500193          	li	gp,37
 4a4:	00000213          	li	tp,0
 4a8:	00700113          	li	sp,7
 4ac:	00000013          	nop
 4b0:	800000b7          	lui	ra,0x80000
 4b4:	0020d733          	srl	a4,ra,sp
 4b8:	00120213          	addi	tp,tp,1 # 1 <test_2+0x1>
 4bc:	00200293          	li	t0,2
 4c0:	fe5214e3          	bne	tp,t0,4a8 <test_37+0x8>
 4c4:	010003b7          	lui	t2,0x1000
 4c8:	0a771e63          	bne	a4,t2,584 <fail>

000004cc <test_38>:
 4cc:	02600193          	li	gp,38
 4d0:	00000213          	li	tp,0
 4d4:	00e00113          	li	sp,14
 4d8:	00000013          	nop
 4dc:	800000b7          	lui	ra,0x80000
 4e0:	00000013          	nop
 4e4:	0020d733          	srl	a4,ra,sp
 4e8:	00120213          	addi	tp,tp,1 # 1 <test_2+0x1>
 4ec:	00200293          	li	t0,2
 4f0:	fe5212e3          	bne	tp,t0,4d4 <test_38+0x8>
 4f4:	000203b7          	lui	t2,0x20
 4f8:	08771663          	bne	a4,t2,584 <fail>

000004fc <test_39>:
 4fc:	02700193          	li	gp,39
 500:	00000213          	li	tp,0
 504:	01f00113          	li	sp,31
 508:	00000013          	nop
 50c:	00000013          	nop
 510:	800000b7          	lui	ra,0x80000
 514:	0020d733          	srl	a4,ra,sp
 518:	00120213          	addi	tp,tp,1 # 1 <test_2+0x1>
 51c:	00200293          	li	t0,2
 520:	fe5212e3          	bne	tp,t0,504 <test_39+0x8>
 524:	00100393          	li	t2,1
 528:	04771e63          	bne	a4,t2,584 <fail>

0000052c <test_40>:
 52c:	02800193          	li	gp,40
 530:	00f00093          	li	ra,15
 534:	00105133          	srl	sp,zero,ra
 538:	00000393          	li	t2,0
 53c:	04711463          	bne	sp,t2,584 <fail>

00000540 <test_41>:
 540:	02900193          	li	gp,41
 544:	02000093          	li	ra,32
 548:	0000d133          	srl	sp,ra,zero
 54c:	02000393          	li	t2,32
 550:	02711a63          	bne	sp,t2,584 <fail>

00000554 <test_42>:
 554:	02a00193          	li	gp,42
 558:	000050b3          	srl	ra,zero,zero
 55c:	00000393          	li	t2,0
 560:	02709263          	bne	ra,t2,584 <fail>

00000564 <test_43>:
 564:	02b00193          	li	gp,43
 568:	40000093          	li	ra,1024
 56c:	00001137          	lui	sp,0x1
 570:	80010113          	addi	sp,sp,-2048 # 800 <pass+0x260>
 574:	0020d033          	srl	zero,ra,sp
 578:	00000393          	li	t2,0
 57c:	00701463          	bne	zero,t2,584 <fail>
 580:	02301063          	bne	zero,gp,5a0 <pass>

00000584 <fail>:
 584:	0ff0000f          	fence
 588:	00018063          	beqz	gp,588 <fail+0x4>
 58c:	00119193          	slli	gp,gp,0x1
 590:	0011e193          	ori	gp,gp,1
 594:	05d00893          	li	a7,93
 598:	00018513          	mv	a0,gp
 59c:	00000073          	ecall

000005a0 <pass>:
 5a0:	0ff0000f          	fence
 5a4:	00100193          	li	gp,1
 5a8:	05d00893          	li	a7,93
 5ac:	00000513          	li	a0,0
 5b0:	00000073          	ecall
