
rv32um-p-divu:     file format elf32-littleriscv


Disassembly of section .text:

00000000 <test_2>:
   0:	00200193          	li	gp,2
   4:	01400593          	li	a1,20
   8:	00600613          	li	a2,6
   c:	02c5d733          	divu	a4,a1,a2
  10:	00300393          	li	t2,3
  14:	0c771663          	bne	a4,t2,e0 <fail>

00000018 <test_3>:
  18:	00300193          	li	gp,3
  1c:	fec00593          	li	a1,-20
  20:	00600613          	li	a2,6
  24:	02c5d733          	divu	a4,a1,a2
  28:	2aaab3b7          	lui	t2,0x2aaab
  2c:	aa738393          	addi	t2,t2,-1369 # 2aaaaaa7 <_end+0x2aaa9a5f>
  30:	0a771863          	bne	a4,t2,e0 <fail>

00000034 <test_4>:
  34:	00400193          	li	gp,4
  38:	01400593          	li	a1,20
  3c:	ffa00613          	li	a2,-6
  40:	02c5d733          	divu	a4,a1,a2
  44:	00000393          	li	t2,0
  48:	08771c63          	bne	a4,t2,e0 <fail>

0000004c <test_5>:
  4c:	00500193          	li	gp,5
  50:	fec00593          	li	a1,-20
  54:	ffa00613          	li	a2,-6
  58:	02c5d733          	divu	a4,a1,a2
  5c:	00000393          	li	t2,0
  60:	08771063          	bne	a4,t2,e0 <fail>

00000064 <test_6>:
  64:	00600193          	li	gp,6
  68:	800005b7          	lui	a1,0x80000
  6c:	00100613          	li	a2,1
  70:	02c5d733          	divu	a4,a1,a2
  74:	800003b7          	lui	t2,0x80000
  78:	06771463          	bne	a4,t2,e0 <fail>

0000007c <test_7>:
  7c:	00700193          	li	gp,7
  80:	800005b7          	lui	a1,0x80000
  84:	fff00613          	li	a2,-1
  88:	02c5d733          	divu	a4,a1,a2
  8c:	00000393          	li	t2,0
  90:	04771863          	bne	a4,t2,e0 <fail>

00000094 <test_8>:
  94:	00800193          	li	gp,8
  98:	800005b7          	lui	a1,0x80000
  9c:	00000613          	li	a2,0
  a0:	02c5d733          	divu	a4,a1,a2
  a4:	fff00393          	li	t2,-1
  a8:	02771c63          	bne	a4,t2,e0 <fail>

000000ac <test_9>:
  ac:	00900193          	li	gp,9
  b0:	00100593          	li	a1,1
  b4:	00000613          	li	a2,0
  b8:	02c5d733          	divu	a4,a1,a2
  bc:	fff00393          	li	t2,-1
  c0:	02771063          	bne	a4,t2,e0 <fail>

000000c4 <test_10>:
  c4:	00a00193          	li	gp,10
  c8:	00000593          	li	a1,0
  cc:	00000613          	li	a2,0
  d0:	02c5d733          	divu	a4,a1,a2
  d4:	fff00393          	li	t2,-1
  d8:	00771463          	bne	a4,t2,e0 <fail>
  dc:	02301063          	bne	zero,gp,fc <pass>

000000e0 <fail>:
  e0:	0ff0000f          	fence
  e4:	00018063          	beqz	gp,e4 <fail+0x4>
  e8:	00119193          	slli	gp,gp,0x1
  ec:	0011e193          	ori	gp,gp,1
  f0:	05d00893          	li	a7,93
  f4:	00018513          	mv	a0,gp
  f8:	00000073          	ecall

000000fc <pass>:
  fc:	0ff0000f          	fence
 100:	00100193          	li	gp,1
 104:	05d00893          	li	a7,93
 108:	00000513          	li	a0,0
 10c:	00000073          	ecall
