
rv32ui-p-lw:     file format elf32-littleriscv


Disassembly of section .text:

00000000 <test_2>:
   0:	00200193          	li	gp,2
   4:	00ff07b7          	lui	a5,0xff0
   8:	0ff78793          	addi	a5,a5,255 # ff00ff <_end+0xfef077>
   c:	00001117          	auipc	sp,0x1
  10:	ff410113          	addi	sp,sp,-12 # 1000 <begin_signature>
  14:	00012703          	lw	a4,0(sp)
  18:	00ff03b7          	lui	t2,0xff0
  1c:	0ff38393          	addi	t2,t2,255 # ff00ff <_end+0xfef077>
  20:	2a771663          	bne	a4,t2,2cc <fail>

00000024 <test_3>:
  24:	00300193          	li	gp,3
  28:	ff0107b7          	lui	a5,0xff010
  2c:	f0078793          	addi	a5,a5,-256 # ff00ff00 <_end+0xff00ee78>
  30:	00001117          	auipc	sp,0x1
  34:	fd010113          	addi	sp,sp,-48 # 1000 <begin_signature>
  38:	00412703          	lw	a4,4(sp)
  3c:	ff0103b7          	lui	t2,0xff010
  40:	f0038393          	addi	t2,t2,-256 # ff00ff00 <_end+0xff00ee78>
  44:	28771463          	bne	a4,t2,2cc <fail>

00000048 <test_4>:
  48:	00400193          	li	gp,4
  4c:	0ff017b7          	lui	a5,0xff01
  50:	ff078793          	addi	a5,a5,-16 # ff00ff0 <_end+0xfefff68>
  54:	00001117          	auipc	sp,0x1
  58:	fac10113          	addi	sp,sp,-84 # 1000 <begin_signature>
  5c:	00812703          	lw	a4,8(sp)
  60:	0ff013b7          	lui	t2,0xff01
  64:	ff038393          	addi	t2,t2,-16 # ff00ff0 <_end+0xfefff68>
  68:	26771263          	bne	a4,t2,2cc <fail>

0000006c <test_5>:
  6c:	00500193          	li	gp,5
  70:	f00ff7b7          	lui	a5,0xf00ff
  74:	00f78793          	addi	a5,a5,15 # f00ff00f <_end+0xf00fdf87>
  78:	00001117          	auipc	sp,0x1
  7c:	f8810113          	addi	sp,sp,-120 # 1000 <begin_signature>
  80:	00c12703          	lw	a4,12(sp)
  84:	f00ff3b7          	lui	t2,0xf00ff
  88:	00f38393          	addi	t2,t2,15 # f00ff00f <_end+0xf00fdf87>
  8c:	24771063          	bne	a4,t2,2cc <fail>

00000090 <test_6>:
  90:	00600193          	li	gp,6
  94:	00ff07b7          	lui	a5,0xff0
  98:	0ff78793          	addi	a5,a5,255 # ff00ff <_end+0xfef077>
  9c:	00001117          	auipc	sp,0x1
  a0:	f7010113          	addi	sp,sp,-144 # 100c <tdat4>
  a4:	ff412703          	lw	a4,-12(sp)
  a8:	00ff03b7          	lui	t2,0xff0
  ac:	0ff38393          	addi	t2,t2,255 # ff00ff <_end+0xfef077>
  b0:	20771e63          	bne	a4,t2,2cc <fail>

000000b4 <test_7>:
  b4:	00700193          	li	gp,7
  b8:	ff0107b7          	lui	a5,0xff010
  bc:	f0078793          	addi	a5,a5,-256 # ff00ff00 <_end+0xff00ee78>
  c0:	00001117          	auipc	sp,0x1
  c4:	f4c10113          	addi	sp,sp,-180 # 100c <tdat4>
  c8:	ff812703          	lw	a4,-8(sp)
  cc:	ff0103b7          	lui	t2,0xff010
  d0:	f0038393          	addi	t2,t2,-256 # ff00ff00 <_end+0xff00ee78>
  d4:	1e771c63          	bne	a4,t2,2cc <fail>

000000d8 <test_8>:
  d8:	00800193          	li	gp,8
  dc:	0ff017b7          	lui	a5,0xff01
  e0:	ff078793          	addi	a5,a5,-16 # ff00ff0 <_end+0xfefff68>
  e4:	00001117          	auipc	sp,0x1
  e8:	f2810113          	addi	sp,sp,-216 # 100c <tdat4>
  ec:	ffc12703          	lw	a4,-4(sp)
  f0:	0ff013b7          	lui	t2,0xff01
  f4:	ff038393          	addi	t2,t2,-16 # ff00ff0 <_end+0xfefff68>
  f8:	1c771a63          	bne	a4,t2,2cc <fail>

000000fc <test_9>:
  fc:	00900193          	li	gp,9
 100:	f00ff7b7          	lui	a5,0xf00ff
 104:	00f78793          	addi	a5,a5,15 # f00ff00f <_end+0xf00fdf87>
 108:	00001117          	auipc	sp,0x1
 10c:	f0410113          	addi	sp,sp,-252 # 100c <tdat4>
 110:	00012703          	lw	a4,0(sp)
 114:	f00ff3b7          	lui	t2,0xf00ff
 118:	00f38393          	addi	t2,t2,15 # f00ff00f <_end+0xf00fdf87>
 11c:	1a771863          	bne	a4,t2,2cc <fail>

00000120 <test_10>:
 120:	00a00193          	li	gp,10
 124:	00001097          	auipc	ra,0x1
 128:	edc08093          	addi	ra,ra,-292 # 1000 <begin_signature>
 12c:	fe008093          	addi	ra,ra,-32
 130:	0200a283          	lw	t0,32(ra)
 134:	00ff03b7          	lui	t2,0xff0
 138:	0ff38393          	addi	t2,t2,255 # ff00ff <_end+0xfef077>
 13c:	18729863          	bne	t0,t2,2cc <fail>

00000140 <test_11>:
 140:	00b00193          	li	gp,11
 144:	00001097          	auipc	ra,0x1
 148:	ebc08093          	addi	ra,ra,-324 # 1000 <begin_signature>
 14c:	ffd08093          	addi	ra,ra,-3
 150:	0070a283          	lw	t0,7(ra)
 154:	ff0103b7          	lui	t2,0xff010
 158:	f0038393          	addi	t2,t2,-256 # ff00ff00 <_end+0xff00ee78>
 15c:	16729863          	bne	t0,t2,2cc <fail>

00000160 <test_12>:
 160:	00c00193          	li	gp,12
 164:	00000213          	li	tp,0
 168:	00001697          	auipc	a3,0x1
 16c:	e9c68693          	addi	a3,a3,-356 # 1004 <tdat2>
 170:	0046a703          	lw	a4,4(a3)
 174:	00070313          	mv	t1,a4
 178:	0ff013b7          	lui	t2,0xff01
 17c:	ff038393          	addi	t2,t2,-16 # ff00ff0 <_end+0xfefff68>
 180:	14731663          	bne	t1,t2,2cc <fail>
 184:	00120213          	addi	tp,tp,1 # 1 <test_2+0x1>
 188:	00200293          	li	t0,2
 18c:	fc521ee3          	bne	tp,t0,168 <test_12+0x8>

00000190 <test_13>:
 190:	00d00193          	li	gp,13
 194:	00000213          	li	tp,0
 198:	00001697          	auipc	a3,0x1
 19c:	e7068693          	addi	a3,a3,-400 # 1008 <tdat3>
 1a0:	0046a703          	lw	a4,4(a3)
 1a4:	00000013          	nop
 1a8:	00070313          	mv	t1,a4
 1ac:	f00ff3b7          	lui	t2,0xf00ff
 1b0:	00f38393          	addi	t2,t2,15 # f00ff00f <_end+0xf00fdf87>
 1b4:	10731c63          	bne	t1,t2,2cc <fail>
 1b8:	00120213          	addi	tp,tp,1 # 1 <test_2+0x1>
 1bc:	00200293          	li	t0,2
 1c0:	fc521ce3          	bne	tp,t0,198 <test_13+0x8>

000001c4 <test_14>:
 1c4:	00e00193          	li	gp,14
 1c8:	00000213          	li	tp,0
 1cc:	00001697          	auipc	a3,0x1
 1d0:	e3468693          	addi	a3,a3,-460 # 1000 <begin_signature>
 1d4:	0046a703          	lw	a4,4(a3)
 1d8:	00000013          	nop
 1dc:	00000013          	nop
 1e0:	00070313          	mv	t1,a4
 1e4:	ff0103b7          	lui	t2,0xff010
 1e8:	f0038393          	addi	t2,t2,-256 # ff00ff00 <_end+0xff00ee78>
 1ec:	0e731063          	bne	t1,t2,2cc <fail>
 1f0:	00120213          	addi	tp,tp,1 # 1 <test_2+0x1>
 1f4:	00200293          	li	t0,2
 1f8:	fc521ae3          	bne	tp,t0,1cc <test_14+0x8>

000001fc <test_15>:
 1fc:	00f00193          	li	gp,15
 200:	00000213          	li	tp,0
 204:	00001697          	auipc	a3,0x1
 208:	e0068693          	addi	a3,a3,-512 # 1004 <tdat2>
 20c:	0046a703          	lw	a4,4(a3)
 210:	0ff013b7          	lui	t2,0xff01
 214:	ff038393          	addi	t2,t2,-16 # ff00ff0 <_end+0xfefff68>
 218:	0a771a63          	bne	a4,t2,2cc <fail>
 21c:	00120213          	addi	tp,tp,1 # 1 <test_2+0x1>
 220:	00200293          	li	t0,2
 224:	fe5210e3          	bne	tp,t0,204 <test_15+0x8>

00000228 <test_16>:
 228:	01000193          	li	gp,16
 22c:	00000213          	li	tp,0
 230:	00001697          	auipc	a3,0x1
 234:	dd868693          	addi	a3,a3,-552 # 1008 <tdat3>
 238:	00000013          	nop
 23c:	0046a703          	lw	a4,4(a3)
 240:	f00ff3b7          	lui	t2,0xf00ff
 244:	00f38393          	addi	t2,t2,15 # f00ff00f <_end+0xf00fdf87>
 248:	08771263          	bne	a4,t2,2cc <fail>
 24c:	00120213          	addi	tp,tp,1 # 1 <test_2+0x1>
 250:	00200293          	li	t0,2
 254:	fc521ee3          	bne	tp,t0,230 <test_16+0x8>

00000258 <test_17>:
 258:	01100193          	li	gp,17
 25c:	00000213          	li	tp,0
 260:	00001697          	auipc	a3,0x1
 264:	da068693          	addi	a3,a3,-608 # 1000 <begin_signature>
 268:	00000013          	nop
 26c:	00000013          	nop
 270:	0046a703          	lw	a4,4(a3)
 274:	ff0103b7          	lui	t2,0xff010
 278:	f0038393          	addi	t2,t2,-256 # ff00ff00 <_end+0xff00ee78>
 27c:	04771863          	bne	a4,t2,2cc <fail>
 280:	00120213          	addi	tp,tp,1 # 1 <test_2+0x1>
 284:	00200293          	li	t0,2
 288:	fc521ce3          	bne	tp,t0,260 <test_17+0x8>

0000028c <test_18>:
 28c:	01200193          	li	gp,18
 290:	00001297          	auipc	t0,0x1
 294:	d7028293          	addi	t0,t0,-656 # 1000 <begin_signature>
 298:	0002a103          	lw	sp,0(t0)
 29c:	00200113          	li	sp,2
 2a0:	00200393          	li	t2,2
 2a4:	02711463          	bne	sp,t2,2cc <fail>

000002a8 <test_19>:
 2a8:	01300193          	li	gp,19
 2ac:	00001297          	auipc	t0,0x1
 2b0:	d5428293          	addi	t0,t0,-684 # 1000 <begin_signature>
 2b4:	0002a103          	lw	sp,0(t0)
 2b8:	00000013          	nop
 2bc:	00200113          	li	sp,2
 2c0:	00200393          	li	t2,2
 2c4:	00711463          	bne	sp,t2,2cc <fail>
 2c8:	02301063          	bne	zero,gp,2e8 <pass>

000002cc <fail>:
 2cc:	0ff0000f          	fence
 2d0:	00018063          	beqz	gp,2d0 <fail+0x4>
 2d4:	00119193          	slli	gp,gp,0x1
 2d8:	0011e193          	ori	gp,gp,1
 2dc:	05d00893          	li	a7,93
 2e0:	00018513          	mv	a0,gp
 2e4:	00000073          	ecall

000002e8 <pass>:
 2e8:	0ff0000f          	fence
 2ec:	00100193          	li	gp,1
 2f0:	05d00893          	li	a7,93
 2f4:	00000513          	li	a0,0
 2f8:	00000073          	ecall
