
tests/rv32m-p-mulhu:     file format elf32-littleriscv


Disassembly of section .text:

00000000 <test_2>:
   0:	00200193          	li	gp,2
   4:	00000593          	li	a1,0
   8:	00000613          	li	a2,0
   c:	02c5b733          	mulhu	a4,a1,a2
  10:	00000393          	li	t2,0
  14:	40771663          	bne	a4,t2,420 <fail>

00000018 <test_3>:
  18:	00300193          	li	gp,3
  1c:	00100593          	li	a1,1
  20:	00100613          	li	a2,1
  24:	02c5b733          	mulhu	a4,a1,a2
  28:	00000393          	li	t2,0
  2c:	3e771a63          	bne	a4,t2,420 <fail>

00000030 <test_4>:
  30:	00400193          	li	gp,4
  34:	00300593          	li	a1,3
  38:	00700613          	li	a2,7
  3c:	02c5b733          	mulhu	a4,a1,a2
  40:	00000393          	li	t2,0
  44:	3c771e63          	bne	a4,t2,420 <fail>

00000048 <test_5>:
  48:	00500193          	li	gp,5
  4c:	00000593          	li	a1,0
  50:	ffff8637          	lui	a2,0xffff8
  54:	02c5b733          	mulhu	a4,a1,a2
  58:	00000393          	li	t2,0
  5c:	3c771263          	bne	a4,t2,420 <fail>

00000060 <test_6>:
  60:	00600193          	li	gp,6
  64:	800005b7          	lui	a1,0x80000
  68:	00000613          	li	a2,0
  6c:	02c5b733          	mulhu	a4,a1,a2
  70:	00000393          	li	t2,0
  74:	3a771663          	bne	a4,t2,420 <fail>

00000078 <test_7>:
  78:	00700193          	li	gp,7
  7c:	800005b7          	lui	a1,0x80000
  80:	ffff8637          	lui	a2,0xffff8
  84:	02c5b733          	mulhu	a4,a1,a2
  88:	7fff83b7          	lui	t2,0x7fff8
  8c:	38771a63          	bne	a4,t2,420 <fail>

00000090 <test_30>:
  90:	01e00193          	li	gp,30
  94:	aaaab5b7          	lui	a1,0xaaaab
  98:	aab58593          	addi	a1,a1,-1365 # aaaaaaab <_end+0xaaaa8aab>
  9c:	00030637          	lui	a2,0x30
  a0:	e7d60613          	addi	a2,a2,-387 # 2fe7d <_end+0x2de7d>
  a4:	02c5b733          	mulhu	a4,a1,a2
  a8:	000203b7          	lui	t2,0x20
  ac:	efe38393          	addi	t2,t2,-258 # 1fefe <_end+0x1defe>
  b0:	36771863          	bne	a4,t2,420 <fail>

000000b4 <test_31>:
  b4:	01f00193          	li	gp,31
  b8:	000305b7          	lui	a1,0x30
  bc:	e7d58593          	addi	a1,a1,-387 # 2fe7d <_end+0x2de7d>
  c0:	aaaab637          	lui	a2,0xaaaab
  c4:	aab60613          	addi	a2,a2,-1365 # aaaaaaab <_end+0xaaaa8aab>
  c8:	02c5b733          	mulhu	a4,a1,a2
  cc:	000203b7          	lui	t2,0x20
  d0:	efe38393          	addi	t2,t2,-258 # 1fefe <_end+0x1defe>
  d4:	34771663          	bne	a4,t2,420 <fail>

000000d8 <test_8>:
  d8:	00800193          	li	gp,8
  dc:	00000593          	li	a1,0
  e0:	00000613          	li	a2,0
  e4:	02c5b5b3          	mulhu	a1,a1,a2
  e8:	08f00393          	li	t2,143
  ec:	32759a63          	bne	a1,t2,420 <fail>

000000f0 <test_9>:
  f0:	00900193          	li	gp,9
  f4:	00000593          	li	a1,0
  f8:	00000613          	li	a2,0
  fc:	02c5b633          	mulhu	a2,a1,a2
 100:	09a00393          	li	t2,154
 104:	30761e63          	bne	a2,t2,420 <fail>

00000108 <test_10>:
 108:	00a00193          	li	gp,10
 10c:	00000593          	li	a1,0
 110:	02b5b5b3          	mulhu	a1,a1,a1
 114:	0a900393          	li	t2,169
 118:	30759463          	bne	a1,t2,420 <fail>

0000011c <test_11>:
 11c:	00b00193          	li	gp,11
 120:	00000213          	li	tp,0
 124:	00000093          	li	ra,0
 128:	00000113          	li	sp,0
 12c:	0220b733          	mulhu	a4,ra,sp
 130:	00070313          	mv	t1,a4
 134:	00120213          	addi	tp,tp,1 # 1 <test_2+0x1>
 138:	00200293          	li	t0,2
 13c:	fe5214e3          	bne	tp,t0,124 <test_11+0x8>
 140:	08f00393          	li	t2,143
 144:	2c731e63          	bne	t1,t2,420 <fail>

00000148 <test_12>:
 148:	00c00193          	li	gp,12
 14c:	00000213          	li	tp,0
 150:	00000093          	li	ra,0
 154:	00000113          	li	sp,0
 158:	0220b733          	mulhu	a4,ra,sp
 15c:	00000013          	nop
 160:	00070313          	mv	t1,a4
 164:	00120213          	addi	tp,tp,1 # 1 <test_2+0x1>
 168:	00200293          	li	t0,2
 16c:	fe5212e3          	bne	tp,t0,150 <test_12+0x8>
 170:	09a00393          	li	t2,154
 174:	2a731663          	bne	t1,t2,420 <fail>

00000178 <test_13>:
 178:	00d00193          	li	gp,13
 17c:	00000213          	li	tp,0
 180:	00000093          	li	ra,0
 184:	00000113          	li	sp,0
 188:	0220b733          	mulhu	a4,ra,sp
 18c:	00000013          	nop
 190:	00000013          	nop
 194:	00070313          	mv	t1,a4
 198:	00120213          	addi	tp,tp,1 # 1 <test_2+0x1>
 19c:	00200293          	li	t0,2
 1a0:	fe5210e3          	bne	tp,t0,180 <test_13+0x8>
 1a4:	0a500393          	li	t2,165
 1a8:	26731c63          	bne	t1,t2,420 <fail>

000001ac <test_14>:
 1ac:	00e00193          	li	gp,14
 1b0:	00000213          	li	tp,0
 1b4:	00000093          	li	ra,0
 1b8:	00000113          	li	sp,0
 1bc:	0220b733          	mulhu	a4,ra,sp
 1c0:	00120213          	addi	tp,tp,1 # 1 <test_2+0x1>
 1c4:	00200293          	li	t0,2
 1c8:	fe5216e3          	bne	tp,t0,1b4 <test_14+0x8>
 1cc:	08f00393          	li	t2,143
 1d0:	24771863          	bne	a4,t2,420 <fail>

000001d4 <test_15>:
 1d4:	00f00193          	li	gp,15
 1d8:	00000213          	li	tp,0
 1dc:	00000093          	li	ra,0
 1e0:	00000113          	li	sp,0
 1e4:	00000013          	nop
 1e8:	0220b733          	mulhu	a4,ra,sp
 1ec:	00120213          	addi	tp,tp,1 # 1 <test_2+0x1>
 1f0:	00200293          	li	t0,2
 1f4:	fe5214e3          	bne	tp,t0,1dc <test_15+0x8>
 1f8:	09a00393          	li	t2,154
 1fc:	22771263          	bne	a4,t2,420 <fail>

00000200 <test_16>:
 200:	01000193          	li	gp,16
 204:	00000213          	li	tp,0
 208:	00000093          	li	ra,0
 20c:	00000113          	li	sp,0
 210:	00000013          	nop
 214:	00000013          	nop
 218:	0220b733          	mulhu	a4,ra,sp
 21c:	00120213          	addi	tp,tp,1 # 1 <test_2+0x1>
 220:	00200293          	li	t0,2
 224:	fe5212e3          	bne	tp,t0,208 <test_16+0x8>
 228:	0a500393          	li	t2,165
 22c:	1e771a63          	bne	a4,t2,420 <fail>

00000230 <test_17>:
 230:	01100193          	li	gp,17
 234:	00000213          	li	tp,0
 238:	00000093          	li	ra,0
 23c:	00000013          	nop
 240:	00000113          	li	sp,0
 244:	0220b733          	mulhu	a4,ra,sp
 248:	00120213          	addi	tp,tp,1 # 1 <test_2+0x1>
 24c:	00200293          	li	t0,2
 250:	fe5214e3          	bne	tp,t0,238 <test_17+0x8>
 254:	08f00393          	li	t2,143
 258:	1c771463          	bne	a4,t2,420 <fail>

0000025c <test_18>:
 25c:	01200193          	li	gp,18
 260:	00000213          	li	tp,0
 264:	00000093          	li	ra,0
 268:	00000013          	nop
 26c:	00000113          	li	sp,0
 270:	00000013          	nop
 274:	0220b733          	mulhu	a4,ra,sp
 278:	00120213          	addi	tp,tp,1 # 1 <test_2+0x1>
 27c:	00200293          	li	t0,2
 280:	fe5212e3          	bne	tp,t0,264 <test_18+0x8>
 284:	09a00393          	li	t2,154
 288:	18771c63          	bne	a4,t2,420 <fail>

0000028c <test_19>:
 28c:	01300193          	li	gp,19
 290:	00000213          	li	tp,0
 294:	00000093          	li	ra,0
 298:	00000013          	nop
 29c:	00000013          	nop
 2a0:	00000113          	li	sp,0
 2a4:	0220b733          	mulhu	a4,ra,sp
 2a8:	00120213          	addi	tp,tp,1 # 1 <test_2+0x1>
 2ac:	00200293          	li	t0,2
 2b0:	fe5212e3          	bne	tp,t0,294 <test_19+0x8>
 2b4:	0a500393          	li	t2,165
 2b8:	16771463          	bne	a4,t2,420 <fail>

000002bc <test_20>:
 2bc:	01400193          	li	gp,20
 2c0:	00000213          	li	tp,0
 2c4:	00000113          	li	sp,0
 2c8:	00000093          	li	ra,0
 2cc:	0220b733          	mulhu	a4,ra,sp
 2d0:	00120213          	addi	tp,tp,1 # 1 <test_2+0x1>
 2d4:	00200293          	li	t0,2
 2d8:	fe5216e3          	bne	tp,t0,2c4 <test_20+0x8>
 2dc:	08f00393          	li	t2,143
 2e0:	14771063          	bne	a4,t2,420 <fail>

000002e4 <test_21>:
 2e4:	01500193          	li	gp,21
 2e8:	00000213          	li	tp,0
 2ec:	00000113          	li	sp,0
 2f0:	00000093          	li	ra,0
 2f4:	00000013          	nop
 2f8:	0220b733          	mulhu	a4,ra,sp
 2fc:	00120213          	addi	tp,tp,1 # 1 <test_2+0x1>
 300:	00200293          	li	t0,2
 304:	fe5214e3          	bne	tp,t0,2ec <test_21+0x8>
 308:	09a00393          	li	t2,154
 30c:	10771a63          	bne	a4,t2,420 <fail>

00000310 <test_22>:
 310:	01600193          	li	gp,22
 314:	00000213          	li	tp,0
 318:	00000113          	li	sp,0
 31c:	00000093          	li	ra,0
 320:	00000013          	nop
 324:	00000013          	nop
 328:	0220b733          	mulhu	a4,ra,sp
 32c:	00120213          	addi	tp,tp,1 # 1 <test_2+0x1>
 330:	00200293          	li	t0,2
 334:	fe5212e3          	bne	tp,t0,318 <test_22+0x8>
 338:	0a500393          	li	t2,165
 33c:	0e771263          	bne	a4,t2,420 <fail>

00000340 <test_23>:
 340:	01700193          	li	gp,23
 344:	00000213          	li	tp,0
 348:	00000113          	li	sp,0
 34c:	00000013          	nop
 350:	00000093          	li	ra,0
 354:	0220b733          	mulhu	a4,ra,sp
 358:	00120213          	addi	tp,tp,1 # 1 <test_2+0x1>
 35c:	00200293          	li	t0,2
 360:	fe5214e3          	bne	tp,t0,348 <test_23+0x8>
 364:	08f00393          	li	t2,143
 368:	0a771c63          	bne	a4,t2,420 <fail>

0000036c <test_24>:
 36c:	01800193          	li	gp,24
 370:	00000213          	li	tp,0
 374:	00000113          	li	sp,0
 378:	00000013          	nop
 37c:	00000093          	li	ra,0
 380:	00000013          	nop
 384:	0220b733          	mulhu	a4,ra,sp
 388:	00120213          	addi	tp,tp,1 # 1 <test_2+0x1>
 38c:	00200293          	li	t0,2
 390:	fe5212e3          	bne	tp,t0,374 <test_24+0x8>
 394:	09a00393          	li	t2,154
 398:	08771463          	bne	a4,t2,420 <fail>

0000039c <test_25>:
 39c:	01900193          	li	gp,25
 3a0:	00000213          	li	tp,0
 3a4:	00000113          	li	sp,0
 3a8:	00000013          	nop
 3ac:	00000013          	nop
 3b0:	00000093          	li	ra,0
 3b4:	0220b733          	mulhu	a4,ra,sp
 3b8:	00120213          	addi	tp,tp,1 # 1 <test_2+0x1>
 3bc:	00200293          	li	t0,2
 3c0:	fe5212e3          	bne	tp,t0,3a4 <test_25+0x8>
 3c4:	0a500393          	li	t2,165
 3c8:	04771c63          	bne	a4,t2,420 <fail>

000003cc <test_26>:
 3cc:	01a00193          	li	gp,26
 3d0:	00000093          	li	ra,0
 3d4:	02103133          	mulhu	sp,zero,ra
 3d8:	00000393          	li	t2,0
 3dc:	04711263          	bne	sp,t2,420 <fail>

000003e0 <test_27>:
 3e0:	01b00193          	li	gp,27
 3e4:	00000093          	li	ra,0
 3e8:	0200b133          	mulhu	sp,ra,zero
 3ec:	00000393          	li	t2,0
 3f0:	02711863          	bne	sp,t2,420 <fail>

000003f4 <test_28>:
 3f4:	01c00193          	li	gp,28
 3f8:	020030b3          	mulhu	ra,zero,zero
 3fc:	00000393          	li	t2,0
 400:	02709063          	bne	ra,t2,420 <fail>

00000404 <test_29>:
 404:	01d00193          	li	gp,29
 408:	00000093          	li	ra,0
 40c:	00000113          	li	sp,0
 410:	0220b033          	mulhu	zero,ra,sp
 414:	00000393          	li	t2,0
 418:	00701463          	bne	zero,t2,420 <fail>
 41c:	00301e63          	bne	zero,gp,438 <pass>

00000420 <fail>:
 420:	00018063          	beqz	gp,420 <fail>
 424:	00119193          	slli	gp,gp,0x1
 428:	0011e193          	ori	gp,gp,1
 42c:	05d00893          	li	a7,93
 430:	00018513          	mv	a0,gp
 434:	0010000b          	.insn	4, 0x0010000b

00000438 <pass>:
 438:	00100193          	li	gp,1
 43c:	05d00893          	li	a7,93
 440:	00000513          	li	a0,0
 444:	0000000b          	.insn	4, 0x000b

Disassembly of section .tohost:

00001000 <tohost>:
	...

00001040 <fromhost>:
	...
