
tests/rv32i-p-jal:     file format elf32-littleriscv


Disassembly of section .text:

00000000 <test_2>:
   0:	00200193          	li	gp,2
   4:	00000093          	li	ra,0
   8:	0100026f          	jal	tp,18 <target_2>

0000000c <linkaddr_2>:
   c:	00000013          	nop
  10:	00000013          	nop
  14:	0400006f          	j	54 <fail>

00000018 <target_2>:
  18:	00000117          	auipc	sp,0x0
  1c:	ff410113          	addi	sp,sp,-12 # c <linkaddr_2>
  20:	02411a63          	bne	sp,tp,54 <fail>

00000024 <test_3>:
  24:	00300193          	li	gp,3
  28:	00100093          	li	ra,1
  2c:	0140006f          	j	40 <test_3+0x1c>
  30:	00108093          	addi	ra,ra,1
  34:	00108093          	addi	ra,ra,1
  38:	00108093          	addi	ra,ra,1
  3c:	00108093          	addi	ra,ra,1
  40:	00108093          	addi	ra,ra,1
  44:	00108093          	addi	ra,ra,1
  48:	00300393          	li	t2,3
  4c:	00709463          	bne	ra,t2,54 <fail>
  50:	00301e63          	bne	zero,gp,6c <pass>

00000054 <fail>:
  54:	00018063          	beqz	gp,54 <fail>
  58:	00119193          	slli	gp,gp,0x1
  5c:	0011e193          	ori	gp,gp,1
  60:	05d00893          	li	a7,93
  64:	00018513          	mv	a0,gp
  68:	0010000b          	.insn	4, 0x0010000b

0000006c <pass>:
  6c:	00100193          	li	gp,1
  70:	05d00893          	li	a7,93
  74:	00000513          	li	a0,0
  78:	0000000b          	.insn	4, 0x000b

Disassembly of section .tohost:

00001000 <tohost>:
	...

00001040 <fromhost>:
	...

Disassembly of section .riscv.attributes:

00000000 <.riscv.attributes>:
   0:	5e41                	.insn	2, 0x5e41
   2:	0000                	.insn	2, 0x
   4:	7200                	.insn	2, 0x7200
   6:	7369                	.insn	2, 0x7369
   8:	01007663          	bgeu	zero,a6,14 <linkaddr_2+0x8>
   c:	0054                	.insn	2, 0x0054
   e:	0000                	.insn	2, 0x
  10:	7205                	.insn	2, 0x7205
  12:	3376                	.insn	2, 0x3376
  14:	6932                	.insn	2, 0x6932
  16:	7032                	.insn	2, 0x7032
  18:	5f31                	.insn	2, 0x5f31
  1a:	326d                	.insn	2, 0x326d
  1c:	3070                	.insn	2, 0x3070
  1e:	615f 7032 5f31      	.insn	6, 0x5f317032615f
  24:	3266                	.insn	2, 0x3266
  26:	3270                	.insn	2, 0x3270
  28:	645f 7032 5f32      	.insn	6, 0x5f327032645f
  2e:	697a                	.insn	2, 0x697a
  30:	32727363          	bgeu	tp,t2,356 <pass+0x2ea>
  34:	3070                	.insn	2, 0x3070
  36:	7a5f 6669 6e65      	.insn	6, 0x6e6566697a5f
  3c:	32696563          	bltu	s2,t1,366 <pass+0x2fa>
  40:	3070                	.insn	2, 0x3070
  42:	7a5f 6d6d 6c75      	.insn	6, 0x6c756d6d7a5f
  48:	7031                	.insn	2, 0x7031
  4a:	5f30                	.insn	2, 0x5f30
  4c:	617a                	.insn	2, 0x617a
  4e:	6d61                	.insn	2, 0x6d61
  50:	3070316f          	jal	sp,3b56 <_end+0x1b56>
  54:	7a5f 6c61 7372      	.insn	6, 0x73726c617a5f
  5a:	30703163          	.insn	4, 0x30703163
	...
