
tests/rv32i-p-sltu:     file format elf32-littleriscv


Disassembly of section .text:

00000000 <test_2>:
   0:	00200193          	li	gp,2
   4:	00000593          	li	a1,0
   8:	00000613          	li	a2,0
   c:	00c5b733          	sltu	a4,a1,a2
  10:	00000393          	li	t2,0
  14:	4a771a63          	bne	a4,t2,4c8 <fail>

00000018 <test_3>:
  18:	00300193          	li	gp,3
  1c:	00100593          	li	a1,1
  20:	00100613          	li	a2,1
  24:	00c5b733          	sltu	a4,a1,a2
  28:	00000393          	li	t2,0
  2c:	48771e63          	bne	a4,t2,4c8 <fail>

00000030 <test_4>:
  30:	00400193          	li	gp,4
  34:	00300593          	li	a1,3
  38:	00700613          	li	a2,7
  3c:	00c5b733          	sltu	a4,a1,a2
  40:	00100393          	li	t2,1
  44:	48771263          	bne	a4,t2,4c8 <fail>

00000048 <test_5>:
  48:	00500193          	li	gp,5
  4c:	00700593          	li	a1,7
  50:	00300613          	li	a2,3
  54:	00c5b733          	sltu	a4,a1,a2
  58:	00000393          	li	t2,0
  5c:	46771663          	bne	a4,t2,4c8 <fail>

00000060 <test_6>:
  60:	00600193          	li	gp,6
  64:	00000593          	li	a1,0
  68:	ffff8637          	lui	a2,0xffff8
  6c:	00c5b733          	sltu	a4,a1,a2
  70:	00100393          	li	t2,1
  74:	44771a63          	bne	a4,t2,4c8 <fail>

00000078 <test_7>:
  78:	00700193          	li	gp,7
  7c:	800005b7          	lui	a1,0x80000
  80:	00000613          	li	a2,0
  84:	00c5b733          	sltu	a4,a1,a2
  88:	00000393          	li	t2,0
  8c:	42771e63          	bne	a4,t2,4c8 <fail>

00000090 <test_8>:
  90:	00800193          	li	gp,8
  94:	800005b7          	lui	a1,0x80000
  98:	ffff8637          	lui	a2,0xffff8
  9c:	00c5b733          	sltu	a4,a1,a2
  a0:	00100393          	li	t2,1
  a4:	42771263          	bne	a4,t2,4c8 <fail>

000000a8 <test_9>:
  a8:	00900193          	li	gp,9
  ac:	00000593          	li	a1,0
  b0:	00008637          	lui	a2,0x8
  b4:	fff60613          	addi	a2,a2,-1 # 7fff <_end+0x5fff>
  b8:	00c5b733          	sltu	a4,a1,a2
  bc:	00100393          	li	t2,1
  c0:	40771463          	bne	a4,t2,4c8 <fail>

000000c4 <test_10>:
  c4:	00a00193          	li	gp,10
  c8:	800005b7          	lui	a1,0x80000
  cc:	fff58593          	addi	a1,a1,-1 # 7fffffff <_end+0x7fffdfff>
  d0:	00000613          	li	a2,0
  d4:	00c5b733          	sltu	a4,a1,a2
  d8:	00000393          	li	t2,0
  dc:	3e771663          	bne	a4,t2,4c8 <fail>

000000e0 <test_11>:
  e0:	00b00193          	li	gp,11
  e4:	800005b7          	lui	a1,0x80000
  e8:	fff58593          	addi	a1,a1,-1 # 7fffffff <_end+0x7fffdfff>
  ec:	00008637          	lui	a2,0x8
  f0:	fff60613          	addi	a2,a2,-1 # 7fff <_end+0x5fff>
  f4:	00c5b733          	sltu	a4,a1,a2
  f8:	00000393          	li	t2,0
  fc:	3c771663          	bne	a4,t2,4c8 <fail>

00000100 <test_12>:
 100:	00c00193          	li	gp,12
 104:	800005b7          	lui	a1,0x80000
 108:	00008637          	lui	a2,0x8
 10c:	fff60613          	addi	a2,a2,-1 # 7fff <_end+0x5fff>
 110:	00c5b733          	sltu	a4,a1,a2
 114:	00000393          	li	t2,0
 118:	3a771863          	bne	a4,t2,4c8 <fail>

0000011c <test_13>:
 11c:	00d00193          	li	gp,13
 120:	800005b7          	lui	a1,0x80000
 124:	fff58593          	addi	a1,a1,-1 # 7fffffff <_end+0x7fffdfff>
 128:	ffff8637          	lui	a2,0xffff8
 12c:	00c5b733          	sltu	a4,a1,a2
 130:	00100393          	li	t2,1
 134:	38771a63          	bne	a4,t2,4c8 <fail>

00000138 <test_14>:
 138:	00e00193          	li	gp,14
 13c:	00000593          	li	a1,0
 140:	fff00613          	li	a2,-1
 144:	00c5b733          	sltu	a4,a1,a2
 148:	00100393          	li	t2,1
 14c:	36771e63          	bne	a4,t2,4c8 <fail>

00000150 <test_15>:
 150:	00f00193          	li	gp,15
 154:	fff00593          	li	a1,-1
 158:	00100613          	li	a2,1
 15c:	00c5b733          	sltu	a4,a1,a2
 160:	00000393          	li	t2,0
 164:	36771263          	bne	a4,t2,4c8 <fail>

00000168 <test_16>:
 168:	01000193          	li	gp,16
 16c:	fff00593          	li	a1,-1
 170:	fff00613          	li	a2,-1
 174:	00c5b733          	sltu	a4,a1,a2
 178:	00000393          	li	t2,0
 17c:	34771663          	bne	a4,t2,4c8 <fail>

00000180 <test_17>:
 180:	01100193          	li	gp,17
 184:	00e00593          	li	a1,14
 188:	00d00613          	li	a2,13
 18c:	00c5b5b3          	sltu	a1,a1,a2
 190:	00000393          	li	t2,0
 194:	32759a63          	bne	a1,t2,4c8 <fail>

00000198 <test_18>:
 198:	01200193          	li	gp,18
 19c:	00b00593          	li	a1,11
 1a0:	00d00613          	li	a2,13
 1a4:	00c5b633          	sltu	a2,a1,a2
 1a8:	00100393          	li	t2,1
 1ac:	30761e63          	bne	a2,t2,4c8 <fail>

000001b0 <test_19>:
 1b0:	01300193          	li	gp,19
 1b4:	00d00593          	li	a1,13
 1b8:	00b5b5b3          	sltu	a1,a1,a1
 1bc:	00000393          	li	t2,0
 1c0:	30759463          	bne	a1,t2,4c8 <fail>

000001c4 <test_20>:
 1c4:	01400193          	li	gp,20
 1c8:	00000213          	li	tp,0
 1cc:	00b00093          	li	ra,11
 1d0:	00d00113          	li	sp,13
 1d4:	0020b733          	sltu	a4,ra,sp
 1d8:	00070313          	mv	t1,a4
 1dc:	00120213          	addi	tp,tp,1 # 1 <test_2+0x1>
 1e0:	00200293          	li	t0,2
 1e4:	fe5214e3          	bne	tp,t0,1cc <test_20+0x8>
 1e8:	00100393          	li	t2,1
 1ec:	2c731e63          	bne	t1,t2,4c8 <fail>

000001f0 <test_21>:
 1f0:	01500193          	li	gp,21
 1f4:	00000213          	li	tp,0
 1f8:	00e00093          	li	ra,14
 1fc:	00d00113          	li	sp,13
 200:	0020b733          	sltu	a4,ra,sp
 204:	00000013          	nop
 208:	00070313          	mv	t1,a4
 20c:	00120213          	addi	tp,tp,1 # 1 <test_2+0x1>
 210:	00200293          	li	t0,2
 214:	fe5212e3          	bne	tp,t0,1f8 <test_21+0x8>
 218:	00000393          	li	t2,0
 21c:	2a731663          	bne	t1,t2,4c8 <fail>

00000220 <test_22>:
 220:	01600193          	li	gp,22
 224:	00000213          	li	tp,0
 228:	00c00093          	li	ra,12
 22c:	00d00113          	li	sp,13
 230:	0020b733          	sltu	a4,ra,sp
 234:	00000013          	nop
 238:	00000013          	nop
 23c:	00070313          	mv	t1,a4
 240:	00120213          	addi	tp,tp,1 # 1 <test_2+0x1>
 244:	00200293          	li	t0,2
 248:	fe5210e3          	bne	tp,t0,228 <test_22+0x8>
 24c:	00100393          	li	t2,1
 250:	26731c63          	bne	t1,t2,4c8 <fail>

00000254 <test_23>:
 254:	01700193          	li	gp,23
 258:	00000213          	li	tp,0
 25c:	00e00093          	li	ra,14
 260:	00d00113          	li	sp,13
 264:	0020b733          	sltu	a4,ra,sp
 268:	00120213          	addi	tp,tp,1 # 1 <test_2+0x1>
 26c:	00200293          	li	t0,2
 270:	fe5216e3          	bne	tp,t0,25c <test_23+0x8>
 274:	00000393          	li	t2,0
 278:	24771863          	bne	a4,t2,4c8 <fail>

0000027c <test_24>:
 27c:	01800193          	li	gp,24
 280:	00000213          	li	tp,0
 284:	00b00093          	li	ra,11
 288:	00d00113          	li	sp,13
 28c:	00000013          	nop
 290:	0020b733          	sltu	a4,ra,sp
 294:	00120213          	addi	tp,tp,1 # 1 <test_2+0x1>
 298:	00200293          	li	t0,2
 29c:	fe5214e3          	bne	tp,t0,284 <test_24+0x8>
 2a0:	00100393          	li	t2,1
 2a4:	22771263          	bne	a4,t2,4c8 <fail>

000002a8 <test_25>:
 2a8:	01900193          	li	gp,25
 2ac:	00000213          	li	tp,0
 2b0:	00f00093          	li	ra,15
 2b4:	00d00113          	li	sp,13
 2b8:	00000013          	nop
 2bc:	00000013          	nop
 2c0:	0020b733          	sltu	a4,ra,sp
 2c4:	00120213          	addi	tp,tp,1 # 1 <test_2+0x1>
 2c8:	00200293          	li	t0,2
 2cc:	fe5212e3          	bne	tp,t0,2b0 <test_25+0x8>
 2d0:	00000393          	li	t2,0
 2d4:	1e771a63          	bne	a4,t2,4c8 <fail>

000002d8 <test_26>:
 2d8:	01a00193          	li	gp,26
 2dc:	00000213          	li	tp,0
 2e0:	00a00093          	li	ra,10
 2e4:	00000013          	nop
 2e8:	00d00113          	li	sp,13
 2ec:	0020b733          	sltu	a4,ra,sp
 2f0:	00120213          	addi	tp,tp,1 # 1 <test_2+0x1>
 2f4:	00200293          	li	t0,2
 2f8:	fe5214e3          	bne	tp,t0,2e0 <test_26+0x8>
 2fc:	00100393          	li	t2,1
 300:	1c771463          	bne	a4,t2,4c8 <fail>

00000304 <test_27>:
 304:	01b00193          	li	gp,27
 308:	00000213          	li	tp,0
 30c:	01000093          	li	ra,16
 310:	00000013          	nop
 314:	00d00113          	li	sp,13
 318:	00000013          	nop
 31c:	0020b733          	sltu	a4,ra,sp
 320:	00120213          	addi	tp,tp,1 # 1 <test_2+0x1>
 324:	00200293          	li	t0,2
 328:	fe5212e3          	bne	tp,t0,30c <test_27+0x8>
 32c:	00000393          	li	t2,0
 330:	18771c63          	bne	a4,t2,4c8 <fail>

00000334 <test_28>:
 334:	01c00193          	li	gp,28
 338:	00000213          	li	tp,0
 33c:	00900093          	li	ra,9
 340:	00000013          	nop
 344:	00000013          	nop
 348:	00d00113          	li	sp,13
 34c:	0020b733          	sltu	a4,ra,sp
 350:	00120213          	addi	tp,tp,1 # 1 <test_2+0x1>
 354:	00200293          	li	t0,2
 358:	fe5212e3          	bne	tp,t0,33c <test_28+0x8>
 35c:	00100393          	li	t2,1
 360:	16771463          	bne	a4,t2,4c8 <fail>

00000364 <test_29>:
 364:	01d00193          	li	gp,29
 368:	00000213          	li	tp,0
 36c:	00d00113          	li	sp,13
 370:	01100093          	li	ra,17
 374:	0020b733          	sltu	a4,ra,sp
 378:	00120213          	addi	tp,tp,1 # 1 <test_2+0x1>
 37c:	00200293          	li	t0,2
 380:	fe5216e3          	bne	tp,t0,36c <test_29+0x8>
 384:	00000393          	li	t2,0
 388:	14771063          	bne	a4,t2,4c8 <fail>

0000038c <test_30>:
 38c:	01e00193          	li	gp,30
 390:	00000213          	li	tp,0
 394:	00d00113          	li	sp,13
 398:	00800093          	li	ra,8
 39c:	00000013          	nop
 3a0:	0020b733          	sltu	a4,ra,sp
 3a4:	00120213          	addi	tp,tp,1 # 1 <test_2+0x1>
 3a8:	00200293          	li	t0,2
 3ac:	fe5214e3          	bne	tp,t0,394 <test_30+0x8>
 3b0:	00100393          	li	t2,1
 3b4:	10771a63          	bne	a4,t2,4c8 <fail>

000003b8 <test_31>:
 3b8:	01f00193          	li	gp,31
 3bc:	00000213          	li	tp,0
 3c0:	00d00113          	li	sp,13
 3c4:	01200093          	li	ra,18
 3c8:	00000013          	nop
 3cc:	00000013          	nop
 3d0:	0020b733          	sltu	a4,ra,sp
 3d4:	00120213          	addi	tp,tp,1 # 1 <test_2+0x1>
 3d8:	00200293          	li	t0,2
 3dc:	fe5212e3          	bne	tp,t0,3c0 <test_31+0x8>
 3e0:	00000393          	li	t2,0
 3e4:	0e771263          	bne	a4,t2,4c8 <fail>

000003e8 <test_32>:
 3e8:	02000193          	li	gp,32
 3ec:	00000213          	li	tp,0
 3f0:	00d00113          	li	sp,13
 3f4:	00000013          	nop
 3f8:	00700093          	li	ra,7
 3fc:	0020b733          	sltu	a4,ra,sp
 400:	00120213          	addi	tp,tp,1 # 1 <test_2+0x1>
 404:	00200293          	li	t0,2
 408:	fe5214e3          	bne	tp,t0,3f0 <test_32+0x8>
 40c:	00100393          	li	t2,1
 410:	0a771c63          	bne	a4,t2,4c8 <fail>

00000414 <test_33>:
 414:	02100193          	li	gp,33
 418:	00000213          	li	tp,0
 41c:	00d00113          	li	sp,13
 420:	00000013          	nop
 424:	01300093          	li	ra,19
 428:	00000013          	nop
 42c:	0020b733          	sltu	a4,ra,sp
 430:	00120213          	addi	tp,tp,1 # 1 <test_2+0x1>
 434:	00200293          	li	t0,2
 438:	fe5212e3          	bne	tp,t0,41c <test_33+0x8>
 43c:	00000393          	li	t2,0
 440:	08771463          	bne	a4,t2,4c8 <fail>

00000444 <test_34>:
 444:	02200193          	li	gp,34
 448:	00000213          	li	tp,0
 44c:	00d00113          	li	sp,13
 450:	00000013          	nop
 454:	00000013          	nop
 458:	00600093          	li	ra,6
 45c:	0020b733          	sltu	a4,ra,sp
 460:	00120213          	addi	tp,tp,1 # 1 <test_2+0x1>
 464:	00200293          	li	t0,2
 468:	fe5212e3          	bne	tp,t0,44c <test_34+0x8>
 46c:	00100393          	li	t2,1
 470:	04771c63          	bne	a4,t2,4c8 <fail>

00000474 <test_35>:
 474:	02300193          	li	gp,35
 478:	fff00093          	li	ra,-1
 47c:	00103133          	snez	sp,ra
 480:	00100393          	li	t2,1
 484:	04711263          	bne	sp,t2,4c8 <fail>

00000488 <test_36>:
 488:	02400193          	li	gp,36
 48c:	fff00093          	li	ra,-1
 490:	0000b133          	sltu	sp,ra,zero
 494:	00000393          	li	t2,0
 498:	02711863          	bne	sp,t2,4c8 <fail>

0000049c <test_37>:
 49c:	02500193          	li	gp,37
 4a0:	000030b3          	snez	ra,zero
 4a4:	00000393          	li	t2,0
 4a8:	02709063          	bne	ra,t2,4c8 <fail>

000004ac <test_38>:
 4ac:	02600193          	li	gp,38
 4b0:	01000093          	li	ra,16
 4b4:	01e00113          	li	sp,30
 4b8:	0020b033          	sltu	zero,ra,sp
 4bc:	00000393          	li	t2,0
 4c0:	00701463          	bne	zero,t2,4c8 <fail>
 4c4:	00301e63          	bne	zero,gp,4e0 <pass>

000004c8 <fail>:
 4c8:	00018063          	beqz	gp,4c8 <fail>
 4cc:	00119193          	slli	gp,gp,0x1
 4d0:	0011e193          	ori	gp,gp,1
 4d4:	05d00893          	li	a7,93
 4d8:	00018513          	mv	a0,gp
 4dc:	0010000b          	.insn	4, 0x0010000b

000004e0 <pass>:
 4e0:	00100193          	li	gp,1
 4e4:	05d00893          	li	a7,93
 4e8:	00000513          	li	a0,0
 4ec:	0000000b          	.insn	4, 0x000b

Disassembly of section .tohost:

00001000 <tohost>:
	...

00001040 <fromhost>:
	...
