
tests/rv32m-p-mulh:     file format elf32-littleriscv


Disassembly of section .text:

00000000 <test_2>:
   0:	00200193          	li	gp,2
   4:	00000593          	li	a1,0
   8:	00000613          	li	a2,0
   c:	02c59733          	mulh	a4,a1,a2
  10:	00000393          	li	t2,0
  14:	3c771263          	bne	a4,t2,3d8 <fail>

00000018 <test_3>:
  18:	00300193          	li	gp,3
  1c:	00100593          	li	a1,1
  20:	00100613          	li	a2,1
  24:	02c59733          	mulh	a4,a1,a2
  28:	00000393          	li	t2,0
  2c:	3a771663          	bne	a4,t2,3d8 <fail>

00000030 <test_4>:
  30:	00400193          	li	gp,4
  34:	00300593          	li	a1,3
  38:	00700613          	li	a2,7
  3c:	02c59733          	mulh	a4,a1,a2
  40:	00000393          	li	t2,0
  44:	38771a63          	bne	a4,t2,3d8 <fail>

00000048 <test_5>:
  48:	00500193          	li	gp,5
  4c:	00000593          	li	a1,0
  50:	ffff8637          	lui	a2,0xffff8
  54:	02c59733          	mulh	a4,a1,a2
  58:	00000393          	li	t2,0
  5c:	36771e63          	bne	a4,t2,3d8 <fail>

00000060 <test_6>:
  60:	00600193          	li	gp,6
  64:	800005b7          	lui	a1,0x80000
  68:	00000613          	li	a2,0
  6c:	02c59733          	mulh	a4,a1,a2
  70:	00000393          	li	t2,0
  74:	36771263          	bne	a4,t2,3d8 <fail>

00000078 <test_7>:
  78:	00700193          	li	gp,7
  7c:	800005b7          	lui	a1,0x80000
  80:	ffff8637          	lui	a2,0xffff8
  84:	02c59733          	mulh	a4,a1,a2
  88:	00000393          	li	t2,0
  8c:	34771663          	bne	a4,t2,3d8 <fail>

00000090 <test_8>:
  90:	00800193          	li	gp,8
  94:	00000593          	li	a1,0
  98:	00000613          	li	a2,0
  9c:	02c595b3          	mulh	a1,a1,a2
  a0:	08f00393          	li	t2,143
  a4:	32759a63          	bne	a1,t2,3d8 <fail>

000000a8 <test_9>:
  a8:	00900193          	li	gp,9
  ac:	00000593          	li	a1,0
  b0:	00000613          	li	a2,0
  b4:	02c59633          	mulh	a2,a1,a2
  b8:	09a00393          	li	t2,154
  bc:	30761e63          	bne	a2,t2,3d8 <fail>

000000c0 <test_10>:
  c0:	00a00193          	li	gp,10
  c4:	00000593          	li	a1,0
  c8:	02b595b3          	mulh	a1,a1,a1
  cc:	0a900393          	li	t2,169
  d0:	30759463          	bne	a1,t2,3d8 <fail>

000000d4 <test_11>:
  d4:	00b00193          	li	gp,11
  d8:	00000213          	li	tp,0
  dc:	00000093          	li	ra,0
  e0:	00000113          	li	sp,0
  e4:	02209733          	mulh	a4,ra,sp
  e8:	00070313          	mv	t1,a4
  ec:	00120213          	addi	tp,tp,1 # 1 <test_2+0x1>
  f0:	00200293          	li	t0,2
  f4:	fe5214e3          	bne	tp,t0,dc <test_11+0x8>
  f8:	08f00393          	li	t2,143
  fc:	2c731e63          	bne	t1,t2,3d8 <fail>

00000100 <test_12>:
 100:	00c00193          	li	gp,12
 104:	00000213          	li	tp,0
 108:	00000093          	li	ra,0
 10c:	00000113          	li	sp,0
 110:	02209733          	mulh	a4,ra,sp
 114:	00000013          	nop
 118:	00070313          	mv	t1,a4
 11c:	00120213          	addi	tp,tp,1 # 1 <test_2+0x1>
 120:	00200293          	li	t0,2
 124:	fe5212e3          	bne	tp,t0,108 <test_12+0x8>
 128:	09a00393          	li	t2,154
 12c:	2a731663          	bne	t1,t2,3d8 <fail>

00000130 <test_13>:
 130:	00d00193          	li	gp,13
 134:	00000213          	li	tp,0
 138:	00000093          	li	ra,0
 13c:	00000113          	li	sp,0
 140:	02209733          	mulh	a4,ra,sp
 144:	00000013          	nop
 148:	00000013          	nop
 14c:	00070313          	mv	t1,a4
 150:	00120213          	addi	tp,tp,1 # 1 <test_2+0x1>
 154:	00200293          	li	t0,2
 158:	fe5210e3          	bne	tp,t0,138 <test_13+0x8>
 15c:	0a500393          	li	t2,165
 160:	26731c63          	bne	t1,t2,3d8 <fail>

00000164 <test_14>:
 164:	00e00193          	li	gp,14
 168:	00000213          	li	tp,0
 16c:	00000093          	li	ra,0
 170:	00000113          	li	sp,0
 174:	02209733          	mulh	a4,ra,sp
 178:	00120213          	addi	tp,tp,1 # 1 <test_2+0x1>
 17c:	00200293          	li	t0,2
 180:	fe5216e3          	bne	tp,t0,16c <test_14+0x8>
 184:	08f00393          	li	t2,143
 188:	24771863          	bne	a4,t2,3d8 <fail>

0000018c <test_15>:
 18c:	00f00193          	li	gp,15
 190:	00000213          	li	tp,0
 194:	00000093          	li	ra,0
 198:	00000113          	li	sp,0
 19c:	00000013          	nop
 1a0:	02209733          	mulh	a4,ra,sp
 1a4:	00120213          	addi	tp,tp,1 # 1 <test_2+0x1>
 1a8:	00200293          	li	t0,2
 1ac:	fe5214e3          	bne	tp,t0,194 <test_15+0x8>
 1b0:	09a00393          	li	t2,154
 1b4:	22771263          	bne	a4,t2,3d8 <fail>

000001b8 <test_16>:
 1b8:	01000193          	li	gp,16
 1bc:	00000213          	li	tp,0
 1c0:	00000093          	li	ra,0
 1c4:	00000113          	li	sp,0
 1c8:	00000013          	nop
 1cc:	00000013          	nop
 1d0:	02209733          	mulh	a4,ra,sp
 1d4:	00120213          	addi	tp,tp,1 # 1 <test_2+0x1>
 1d8:	00200293          	li	t0,2
 1dc:	fe5212e3          	bne	tp,t0,1c0 <test_16+0x8>
 1e0:	0a500393          	li	t2,165
 1e4:	1e771a63          	bne	a4,t2,3d8 <fail>

000001e8 <test_17>:
 1e8:	01100193          	li	gp,17
 1ec:	00000213          	li	tp,0
 1f0:	00000093          	li	ra,0
 1f4:	00000013          	nop
 1f8:	00000113          	li	sp,0
 1fc:	02209733          	mulh	a4,ra,sp
 200:	00120213          	addi	tp,tp,1 # 1 <test_2+0x1>
 204:	00200293          	li	t0,2
 208:	fe5214e3          	bne	tp,t0,1f0 <test_17+0x8>
 20c:	08f00393          	li	t2,143
 210:	1c771463          	bne	a4,t2,3d8 <fail>

00000214 <test_18>:
 214:	01200193          	li	gp,18
 218:	00000213          	li	tp,0
 21c:	00000093          	li	ra,0
 220:	00000013          	nop
 224:	00000113          	li	sp,0
 228:	00000013          	nop
 22c:	02209733          	mulh	a4,ra,sp
 230:	00120213          	addi	tp,tp,1 # 1 <test_2+0x1>
 234:	00200293          	li	t0,2
 238:	fe5212e3          	bne	tp,t0,21c <test_18+0x8>
 23c:	09a00393          	li	t2,154
 240:	18771c63          	bne	a4,t2,3d8 <fail>

00000244 <test_19>:
 244:	01300193          	li	gp,19
 248:	00000213          	li	tp,0
 24c:	00000093          	li	ra,0
 250:	00000013          	nop
 254:	00000013          	nop
 258:	00000113          	li	sp,0
 25c:	02209733          	mulh	a4,ra,sp
 260:	00120213          	addi	tp,tp,1 # 1 <test_2+0x1>
 264:	00200293          	li	t0,2
 268:	fe5212e3          	bne	tp,t0,24c <test_19+0x8>
 26c:	0a500393          	li	t2,165
 270:	16771463          	bne	a4,t2,3d8 <fail>

00000274 <test_20>:
 274:	01400193          	li	gp,20
 278:	00000213          	li	tp,0
 27c:	00000113          	li	sp,0
 280:	00000093          	li	ra,0
 284:	02209733          	mulh	a4,ra,sp
 288:	00120213          	addi	tp,tp,1 # 1 <test_2+0x1>
 28c:	00200293          	li	t0,2
 290:	fe5216e3          	bne	tp,t0,27c <test_20+0x8>
 294:	08f00393          	li	t2,143
 298:	14771063          	bne	a4,t2,3d8 <fail>

0000029c <test_21>:
 29c:	01500193          	li	gp,21
 2a0:	00000213          	li	tp,0
 2a4:	00000113          	li	sp,0
 2a8:	00000093          	li	ra,0
 2ac:	00000013          	nop
 2b0:	02209733          	mulh	a4,ra,sp
 2b4:	00120213          	addi	tp,tp,1 # 1 <test_2+0x1>
 2b8:	00200293          	li	t0,2
 2bc:	fe5214e3          	bne	tp,t0,2a4 <test_21+0x8>
 2c0:	09a00393          	li	t2,154
 2c4:	10771a63          	bne	a4,t2,3d8 <fail>

000002c8 <test_22>:
 2c8:	01600193          	li	gp,22
 2cc:	00000213          	li	tp,0
 2d0:	00000113          	li	sp,0
 2d4:	00000093          	li	ra,0
 2d8:	00000013          	nop
 2dc:	00000013          	nop
 2e0:	02209733          	mulh	a4,ra,sp
 2e4:	00120213          	addi	tp,tp,1 # 1 <test_2+0x1>
 2e8:	00200293          	li	t0,2
 2ec:	fe5212e3          	bne	tp,t0,2d0 <test_22+0x8>
 2f0:	0a500393          	li	t2,165
 2f4:	0e771263          	bne	a4,t2,3d8 <fail>

000002f8 <test_23>:
 2f8:	01700193          	li	gp,23
 2fc:	00000213          	li	tp,0
 300:	00000113          	li	sp,0
 304:	00000013          	nop
 308:	00000093          	li	ra,0
 30c:	02209733          	mulh	a4,ra,sp
 310:	00120213          	addi	tp,tp,1 # 1 <test_2+0x1>
 314:	00200293          	li	t0,2
 318:	fe5214e3          	bne	tp,t0,300 <test_23+0x8>
 31c:	08f00393          	li	t2,143
 320:	0a771c63          	bne	a4,t2,3d8 <fail>

00000324 <test_24>:
 324:	01800193          	li	gp,24
 328:	00000213          	li	tp,0
 32c:	00000113          	li	sp,0
 330:	00000013          	nop
 334:	00000093          	li	ra,0
 338:	00000013          	nop
 33c:	02209733          	mulh	a4,ra,sp
 340:	00120213          	addi	tp,tp,1 # 1 <test_2+0x1>
 344:	00200293          	li	t0,2
 348:	fe5212e3          	bne	tp,t0,32c <test_24+0x8>
 34c:	09a00393          	li	t2,154
 350:	08771463          	bne	a4,t2,3d8 <fail>

00000354 <test_25>:
 354:	01900193          	li	gp,25
 358:	00000213          	li	tp,0
 35c:	00000113          	li	sp,0
 360:	00000013          	nop
 364:	00000013          	nop
 368:	00000093          	li	ra,0
 36c:	02209733          	mulh	a4,ra,sp
 370:	00120213          	addi	tp,tp,1 # 1 <test_2+0x1>
 374:	00200293          	li	t0,2
 378:	fe5212e3          	bne	tp,t0,35c <test_25+0x8>
 37c:	0a500393          	li	t2,165
 380:	04771c63          	bne	a4,t2,3d8 <fail>

00000384 <test_26>:
 384:	01a00193          	li	gp,26
 388:	00000093          	li	ra,0
 38c:	02101133          	mulh	sp,zero,ra
 390:	00000393          	li	t2,0
 394:	04711263          	bne	sp,t2,3d8 <fail>

00000398 <test_27>:
 398:	01b00193          	li	gp,27
 39c:	00000093          	li	ra,0
 3a0:	02009133          	mulh	sp,ra,zero
 3a4:	00000393          	li	t2,0
 3a8:	02711863          	bne	sp,t2,3d8 <fail>

000003ac <test_28>:
 3ac:	01c00193          	li	gp,28
 3b0:	020010b3          	mulh	ra,zero,zero
 3b4:	00000393          	li	t2,0
 3b8:	02709063          	bne	ra,t2,3d8 <fail>

000003bc <test_29>:
 3bc:	01d00193          	li	gp,29
 3c0:	00000093          	li	ra,0
 3c4:	00000113          	li	sp,0
 3c8:	02209033          	mulh	zero,ra,sp
 3cc:	00000393          	li	t2,0
 3d0:	00701463          	bne	zero,t2,3d8 <fail>
 3d4:	00301e63          	bne	zero,gp,3f0 <pass>

000003d8 <fail>:
 3d8:	00018063          	beqz	gp,3d8 <fail>
 3dc:	00119193          	slli	gp,gp,0x1
 3e0:	0011e193          	ori	gp,gp,1
 3e4:	05d00893          	li	a7,93
 3e8:	00018513          	mv	a0,gp
 3ec:	0010000b          	.insn	4, 0x0010000b

000003f0 <pass>:
 3f0:	00100193          	li	gp,1
 3f4:	05d00893          	li	a7,93
 3f8:	00000513          	li	a0,0
 3fc:	0000000b          	.insn	4, 0x000b

Disassembly of section .tohost:

00001000 <tohost>:
	...

00001040 <fromhost>:
	...
