
tests/rv32m-p-mul:     file format elf32-littleriscv


Disassembly of section .text:

00000000 <test_32>:
   0:	02000193          	li	gp,32
   4:	000085b7          	lui	a1,0x8
   8:	e0058593          	addi	a1,a1,-512 # 7e00 <_end+0x5e00>
   c:	b6db7637          	lui	a2,0xb6db7
  10:	db760613          	addi	a2,a2,-585 # b6db6db7 <_end+0xb6db4db7>
  14:	02c58733          	mul	a4,a1,a2
  18:	000013b7          	lui	t2,0x1
  1c:	20038393          	addi	t2,t2,512 # 1200 <fromhost+0x1c0>
  20:	44771463          	bne	a4,t2,468 <fail>

00000024 <test_33>:
  24:	02100193          	li	gp,33
  28:	000085b7          	lui	a1,0x8
  2c:	fc058593          	addi	a1,a1,-64 # 7fc0 <_end+0x5fc0>
  30:	b6db7637          	lui	a2,0xb6db7
  34:	db760613          	addi	a2,a2,-585 # b6db6db7 <_end+0xb6db4db7>
  38:	02c58733          	mul	a4,a1,a2
  3c:	000013b7          	lui	t2,0x1
  40:	24038393          	addi	t2,t2,576 # 1240 <fromhost+0x200>
  44:	42771263          	bne	a4,t2,468 <fail>

00000048 <test_2>:
  48:	00200193          	li	gp,2
  4c:	00000593          	li	a1,0
  50:	00000613          	li	a2,0
  54:	02c58733          	mul	a4,a1,a2
  58:	00000393          	li	t2,0
  5c:	40771663          	bne	a4,t2,468 <fail>

00000060 <test_3>:
  60:	00300193          	li	gp,3
  64:	00100593          	li	a1,1
  68:	00100613          	li	a2,1
  6c:	02c58733          	mul	a4,a1,a2
  70:	00100393          	li	t2,1
  74:	3e771a63          	bne	a4,t2,468 <fail>

00000078 <test_4>:
  78:	00400193          	li	gp,4
  7c:	00300593          	li	a1,3
  80:	00700613          	li	a2,7
  84:	02c58733          	mul	a4,a1,a2
  88:	01500393          	li	t2,21
  8c:	3c771e63          	bne	a4,t2,468 <fail>

00000090 <test_5>:
  90:	00500193          	li	gp,5
  94:	00000593          	li	a1,0
  98:	ffff8637          	lui	a2,0xffff8
  9c:	02c58733          	mul	a4,a1,a2
  a0:	00000393          	li	t2,0
  a4:	3c771263          	bne	a4,t2,468 <fail>

000000a8 <test_6>:
  a8:	00600193          	li	gp,6
  ac:	800005b7          	lui	a1,0x80000
  b0:	00000613          	li	a2,0
  b4:	02c58733          	mul	a4,a1,a2
  b8:	00000393          	li	t2,0
  bc:	3a771663          	bne	a4,t2,468 <fail>

000000c0 <test_7>:
  c0:	00700193          	li	gp,7
  c4:	800005b7          	lui	a1,0x80000
  c8:	ffff8637          	lui	a2,0xffff8
  cc:	02c58733          	mul	a4,a1,a2
  d0:	00000393          	li	t2,0
  d4:	38771a63          	bne	a4,t2,468 <fail>

000000d8 <test_30>:
  d8:	01e00193          	li	gp,30
  dc:	aaaab5b7          	lui	a1,0xaaaab
  e0:	aab58593          	addi	a1,a1,-1365 # aaaaaaab <_end+0xaaaa8aab>
  e4:	00030637          	lui	a2,0x30
  e8:	e7d60613          	addi	a2,a2,-387 # 2fe7d <_end+0x2de7d>
  ec:	02c58733          	mul	a4,a1,a2
  f0:	000103b7          	lui	t2,0x10
  f4:	f7f38393          	addi	t2,t2,-129 # ff7f <_end+0xdf7f>
  f8:	36771863          	bne	a4,t2,468 <fail>

000000fc <test_31>:
  fc:	01f00193          	li	gp,31
 100:	000305b7          	lui	a1,0x30
 104:	e7d58593          	addi	a1,a1,-387 # 2fe7d <_end+0x2de7d>
 108:	aaaab637          	lui	a2,0xaaaab
 10c:	aab60613          	addi	a2,a2,-1365 # aaaaaaab <_end+0xaaaa8aab>
 110:	02c58733          	mul	a4,a1,a2
 114:	000103b7          	lui	t2,0x10
 118:	f7f38393          	addi	t2,t2,-129 # ff7f <_end+0xdf7f>
 11c:	34771663          	bne	a4,t2,468 <fail>

00000120 <test_8>:
 120:	00800193          	li	gp,8
 124:	00d00593          	li	a1,13
 128:	00b00613          	li	a2,11
 12c:	02c585b3          	mul	a1,a1,a2
 130:	08f00393          	li	t2,143
 134:	32759a63          	bne	a1,t2,468 <fail>

00000138 <test_9>:
 138:	00900193          	li	gp,9
 13c:	00e00593          	li	a1,14
 140:	00b00613          	li	a2,11
 144:	02c58633          	mul	a2,a1,a2
 148:	09a00393          	li	t2,154
 14c:	30761e63          	bne	a2,t2,468 <fail>

00000150 <test_10>:
 150:	00a00193          	li	gp,10
 154:	00d00593          	li	a1,13
 158:	02b585b3          	mul	a1,a1,a1
 15c:	0a900393          	li	t2,169
 160:	30759463          	bne	a1,t2,468 <fail>

00000164 <test_11>:
 164:	00b00193          	li	gp,11
 168:	00000213          	li	tp,0
 16c:	00d00093          	li	ra,13
 170:	00b00113          	li	sp,11
 174:	02208733          	mul	a4,ra,sp
 178:	00070313          	mv	t1,a4
 17c:	00120213          	addi	tp,tp,1 # 1 <test_32+0x1>
 180:	00200293          	li	t0,2
 184:	fe5214e3          	bne	tp,t0,16c <test_11+0x8>
 188:	08f00393          	li	t2,143
 18c:	2c731e63          	bne	t1,t2,468 <fail>

00000190 <test_12>:
 190:	00c00193          	li	gp,12
 194:	00000213          	li	tp,0
 198:	00e00093          	li	ra,14
 19c:	00b00113          	li	sp,11
 1a0:	02208733          	mul	a4,ra,sp
 1a4:	00000013          	nop
 1a8:	00070313          	mv	t1,a4
 1ac:	00120213          	addi	tp,tp,1 # 1 <test_32+0x1>
 1b0:	00200293          	li	t0,2
 1b4:	fe5212e3          	bne	tp,t0,198 <test_12+0x8>
 1b8:	09a00393          	li	t2,154
 1bc:	2a731663          	bne	t1,t2,468 <fail>

000001c0 <test_13>:
 1c0:	00d00193          	li	gp,13
 1c4:	00000213          	li	tp,0
 1c8:	00f00093          	li	ra,15
 1cc:	00b00113          	li	sp,11
 1d0:	02208733          	mul	a4,ra,sp
 1d4:	00000013          	nop
 1d8:	00000013          	nop
 1dc:	00070313          	mv	t1,a4
 1e0:	00120213          	addi	tp,tp,1 # 1 <test_32+0x1>
 1e4:	00200293          	li	t0,2
 1e8:	fe5210e3          	bne	tp,t0,1c8 <test_13+0x8>
 1ec:	0a500393          	li	t2,165
 1f0:	26731c63          	bne	t1,t2,468 <fail>

000001f4 <test_14>:
 1f4:	00e00193          	li	gp,14
 1f8:	00000213          	li	tp,0
 1fc:	00d00093          	li	ra,13
 200:	00b00113          	li	sp,11
 204:	02208733          	mul	a4,ra,sp
 208:	00120213          	addi	tp,tp,1 # 1 <test_32+0x1>
 20c:	00200293          	li	t0,2
 210:	fe5216e3          	bne	tp,t0,1fc <test_14+0x8>
 214:	08f00393          	li	t2,143
 218:	24771863          	bne	a4,t2,468 <fail>

0000021c <test_15>:
 21c:	00f00193          	li	gp,15
 220:	00000213          	li	tp,0
 224:	00e00093          	li	ra,14
 228:	00b00113          	li	sp,11
 22c:	00000013          	nop
 230:	02208733          	mul	a4,ra,sp
 234:	00120213          	addi	tp,tp,1 # 1 <test_32+0x1>
 238:	00200293          	li	t0,2
 23c:	fe5214e3          	bne	tp,t0,224 <test_15+0x8>
 240:	09a00393          	li	t2,154
 244:	22771263          	bne	a4,t2,468 <fail>

00000248 <test_16>:
 248:	01000193          	li	gp,16
 24c:	00000213          	li	tp,0
 250:	00f00093          	li	ra,15
 254:	00b00113          	li	sp,11
 258:	00000013          	nop
 25c:	00000013          	nop
 260:	02208733          	mul	a4,ra,sp
 264:	00120213          	addi	tp,tp,1 # 1 <test_32+0x1>
 268:	00200293          	li	t0,2
 26c:	fe5212e3          	bne	tp,t0,250 <test_16+0x8>
 270:	0a500393          	li	t2,165
 274:	1e771a63          	bne	a4,t2,468 <fail>

00000278 <test_17>:
 278:	01100193          	li	gp,17
 27c:	00000213          	li	tp,0
 280:	00d00093          	li	ra,13
 284:	00000013          	nop
 288:	00b00113          	li	sp,11
 28c:	02208733          	mul	a4,ra,sp
 290:	00120213          	addi	tp,tp,1 # 1 <test_32+0x1>
 294:	00200293          	li	t0,2
 298:	fe5214e3          	bne	tp,t0,280 <test_17+0x8>
 29c:	08f00393          	li	t2,143
 2a0:	1c771463          	bne	a4,t2,468 <fail>

000002a4 <test_18>:
 2a4:	01200193          	li	gp,18
 2a8:	00000213          	li	tp,0
 2ac:	00e00093          	li	ra,14
 2b0:	00000013          	nop
 2b4:	00b00113          	li	sp,11
 2b8:	00000013          	nop
 2bc:	02208733          	mul	a4,ra,sp
 2c0:	00120213          	addi	tp,tp,1 # 1 <test_32+0x1>
 2c4:	00200293          	li	t0,2
 2c8:	fe5212e3          	bne	tp,t0,2ac <test_18+0x8>
 2cc:	09a00393          	li	t2,154
 2d0:	18771c63          	bne	a4,t2,468 <fail>

000002d4 <test_19>:
 2d4:	01300193          	li	gp,19
 2d8:	00000213          	li	tp,0
 2dc:	00f00093          	li	ra,15
 2e0:	00000013          	nop
 2e4:	00000013          	nop
 2e8:	00b00113          	li	sp,11
 2ec:	02208733          	mul	a4,ra,sp
 2f0:	00120213          	addi	tp,tp,1 # 1 <test_32+0x1>
 2f4:	00200293          	li	t0,2
 2f8:	fe5212e3          	bne	tp,t0,2dc <test_19+0x8>
 2fc:	0a500393          	li	t2,165
 300:	16771463          	bne	a4,t2,468 <fail>

00000304 <test_20>:
 304:	01400193          	li	gp,20
 308:	00000213          	li	tp,0
 30c:	00b00113          	li	sp,11
 310:	00d00093          	li	ra,13
 314:	02208733          	mul	a4,ra,sp
 318:	00120213          	addi	tp,tp,1 # 1 <test_32+0x1>
 31c:	00200293          	li	t0,2
 320:	fe5216e3          	bne	tp,t0,30c <test_20+0x8>
 324:	08f00393          	li	t2,143
 328:	14771063          	bne	a4,t2,468 <fail>

0000032c <test_21>:
 32c:	01500193          	li	gp,21
 330:	00000213          	li	tp,0
 334:	00b00113          	li	sp,11
 338:	00e00093          	li	ra,14
 33c:	00000013          	nop
 340:	02208733          	mul	a4,ra,sp
 344:	00120213          	addi	tp,tp,1 # 1 <test_32+0x1>
 348:	00200293          	li	t0,2
 34c:	fe5214e3          	bne	tp,t0,334 <test_21+0x8>
 350:	09a00393          	li	t2,154
 354:	10771a63          	bne	a4,t2,468 <fail>

00000358 <test_22>:
 358:	01600193          	li	gp,22
 35c:	00000213          	li	tp,0
 360:	00b00113          	li	sp,11
 364:	00f00093          	li	ra,15
 368:	00000013          	nop
 36c:	00000013          	nop
 370:	02208733          	mul	a4,ra,sp
 374:	00120213          	addi	tp,tp,1 # 1 <test_32+0x1>
 378:	00200293          	li	t0,2
 37c:	fe5212e3          	bne	tp,t0,360 <test_22+0x8>
 380:	0a500393          	li	t2,165
 384:	0e771263          	bne	a4,t2,468 <fail>

00000388 <test_23>:
 388:	01700193          	li	gp,23
 38c:	00000213          	li	tp,0
 390:	00b00113          	li	sp,11
 394:	00000013          	nop
 398:	00d00093          	li	ra,13
 39c:	02208733          	mul	a4,ra,sp
 3a0:	00120213          	addi	tp,tp,1 # 1 <test_32+0x1>
 3a4:	00200293          	li	t0,2
 3a8:	fe5214e3          	bne	tp,t0,390 <test_23+0x8>
 3ac:	08f00393          	li	t2,143
 3b0:	0a771c63          	bne	a4,t2,468 <fail>

000003b4 <test_24>:
 3b4:	01800193          	li	gp,24
 3b8:	00000213          	li	tp,0
 3bc:	00b00113          	li	sp,11
 3c0:	00000013          	nop
 3c4:	00e00093          	li	ra,14
 3c8:	00000013          	nop
 3cc:	02208733          	mul	a4,ra,sp
 3d0:	00120213          	addi	tp,tp,1 # 1 <test_32+0x1>
 3d4:	00200293          	li	t0,2
 3d8:	fe5212e3          	bne	tp,t0,3bc <test_24+0x8>
 3dc:	09a00393          	li	t2,154
 3e0:	08771463          	bne	a4,t2,468 <fail>

000003e4 <test_25>:
 3e4:	01900193          	li	gp,25
 3e8:	00000213          	li	tp,0
 3ec:	00b00113          	li	sp,11
 3f0:	00000013          	nop
 3f4:	00000013          	nop
 3f8:	00f00093          	li	ra,15
 3fc:	02208733          	mul	a4,ra,sp
 400:	00120213          	addi	tp,tp,1 # 1 <test_32+0x1>
 404:	00200293          	li	t0,2
 408:	fe5212e3          	bne	tp,t0,3ec <test_25+0x8>
 40c:	0a500393          	li	t2,165
 410:	04771c63          	bne	a4,t2,468 <fail>

00000414 <test_26>:
 414:	01a00193          	li	gp,26
 418:	01f00093          	li	ra,31
 41c:	02100133          	mul	sp,zero,ra
 420:	00000393          	li	t2,0
 424:	04711263          	bne	sp,t2,468 <fail>

00000428 <test_27>:
 428:	01b00193          	li	gp,27
 42c:	02000093          	li	ra,32
 430:	02008133          	mul	sp,ra,zero
 434:	00000393          	li	t2,0
 438:	02711863          	bne	sp,t2,468 <fail>

0000043c <test_28>:
 43c:	01c00193          	li	gp,28
 440:	020000b3          	mul	ra,zero,zero
 444:	00000393          	li	t2,0
 448:	02709063          	bne	ra,t2,468 <fail>

0000044c <test_29>:
 44c:	01d00193          	li	gp,29
 450:	02100093          	li	ra,33
 454:	02200113          	li	sp,34
 458:	02208033          	mul	zero,ra,sp
 45c:	00000393          	li	t2,0
 460:	00701463          	bne	zero,t2,468 <fail>
 464:	00301e63          	bne	zero,gp,480 <pass>

00000468 <fail>:
 468:	00018063          	beqz	gp,468 <fail>
 46c:	00119193          	slli	gp,gp,0x1
 470:	0011e193          	ori	gp,gp,1
 474:	05d00893          	li	a7,93
 478:	00018513          	mv	a0,gp
 47c:	0010000b          	.insn	4, 0x0010000b

00000480 <pass>:
 480:	00100193          	li	gp,1
 484:	05d00893          	li	a7,93
 488:	00000513          	li	a0,0
 48c:	0000000b          	.insn	4, 0x000b

Disassembly of section .tohost:

00001000 <tohost>:
	...

00001040 <fromhost>:
	...
